ARM GAS  C:\Users\Raulmo\AppData\Local\Temp\cckyDxud.s 			page 1


   1              		.cpu cortex-m0
   2              		.fpu softvfp
   3              		.eabi_attribute 20, 1
   4              		.eabi_attribute 21, 1
   5              		.eabi_attribute 23, 3
   6              		.eabi_attribute 24, 1
   7              		.eabi_attribute 25, 1
   8              		.eabi_attribute 26, 1
   9              		.eabi_attribute 30, 1
  10              		.eabi_attribute 34, 0
  11              		.eabi_attribute 18, 4
  12              		.code	16
  13              		.file	"cyfitter_cfg.c"
  14              		.text
  15              	.Ltext0:
  16              		.cfi_sections	.debug_frame
  17              		.section	.text.cfg_write_bytes32,"ax",%progbits
  18              		.align	2
  19              		.code	16
  20              		.thumb_func
  21              		.type	cfg_write_bytes32, %function
  22              	cfg_write_bytes32:
  23              	.LFB5:
  24              		.file 1 ".\\Generated_Source\\PSoC4\\cyfitter_cfg.c"
   1:.\Generated_Source\PSoC4/cyfitter_cfg.c **** /*******************************************************************************
   2:.\Generated_Source\PSoC4/cyfitter_cfg.c **** * FILENAME: cyfitter_cfg.c
   3:.\Generated_Source\PSoC4/cyfitter_cfg.c **** * 
   4:.\Generated_Source\PSoC4/cyfitter_cfg.c **** * PSoC Creator  3.2
   5:.\Generated_Source\PSoC4/cyfitter_cfg.c **** *
   6:.\Generated_Source\PSoC4/cyfitter_cfg.c **** * DESCRIPTION:
   7:.\Generated_Source\PSoC4/cyfitter_cfg.c **** * This file contains device initialization code.
   8:.\Generated_Source\PSoC4/cyfitter_cfg.c **** * Except for the user defined sections in CyClockStartupError(), this file should not be modified.
   9:.\Generated_Source\PSoC4/cyfitter_cfg.c **** * This file is automatically generated by PSoC Creator.
  10:.\Generated_Source\PSoC4/cyfitter_cfg.c **** *
  11:.\Generated_Source\PSoC4/cyfitter_cfg.c **** ********************************************************************************
  12:.\Generated_Source\PSoC4/cyfitter_cfg.c **** * Copyright (c) 2007-2015 Cypress Semiconductor.  All rights reserved.
  13:.\Generated_Source\PSoC4/cyfitter_cfg.c **** * You may use this file only in accordance with the license, terms, conditions, 
  14:.\Generated_Source\PSoC4/cyfitter_cfg.c **** * disclaimers, and limitations in the end user license agreement accompanying 
  15:.\Generated_Source\PSoC4/cyfitter_cfg.c **** * the software package with which this file was provided.
  16:.\Generated_Source\PSoC4/cyfitter_cfg.c **** ********************************************************************************/
  17:.\Generated_Source\PSoC4/cyfitter_cfg.c **** 
  18:.\Generated_Source\PSoC4/cyfitter_cfg.c **** #include <string.h>
  19:.\Generated_Source\PSoC4/cyfitter_cfg.c **** #include "cytypes.h"
  20:.\Generated_Source\PSoC4/cyfitter_cfg.c **** #include "cydevice_trm.h"
  21:.\Generated_Source\PSoC4/cyfitter_cfg.c **** #include "cyfitter.h"
  22:.\Generated_Source\PSoC4/cyfitter_cfg.c **** #include "CyLib.h"
  23:.\Generated_Source\PSoC4/cyfitter_cfg.c **** #include "CyLFClk.h"
  24:.\Generated_Source\PSoC4/cyfitter_cfg.c **** #include "cyfitter_cfg.h"
  25:.\Generated_Source\PSoC4/cyfitter_cfg.c **** 
  26:.\Generated_Source\PSoC4/cyfitter_cfg.c **** 
  27:.\Generated_Source\PSoC4/cyfitter_cfg.c **** #if defined(__GNUC__) || defined(__ARMCC_VERSION)
  28:.\Generated_Source\PSoC4/cyfitter_cfg.c ****     #define CYPACKED 
  29:.\Generated_Source\PSoC4/cyfitter_cfg.c ****     #define CYPACKED_ATTR __attribute__ ((packed))
  30:.\Generated_Source\PSoC4/cyfitter_cfg.c ****     #define CYALIGNED __attribute__ ((aligned))
  31:.\Generated_Source\PSoC4/cyfitter_cfg.c ****     #define CY_CFG_UNUSED __attribute__ ((unused))
  32:.\Generated_Source\PSoC4/cyfitter_cfg.c ****     #define CY_CFG_SECTION __attribute__ ((section(".psocinit")))
  33:.\Generated_Source\PSoC4/cyfitter_cfg.c ****     
ARM GAS  C:\Users\Raulmo\AppData\Local\Temp\cckyDxud.s 			page 2


  34:.\Generated_Source\PSoC4/cyfitter_cfg.c ****     #if defined(__ARMCC_VERSION)
  35:.\Generated_Source\PSoC4/cyfitter_cfg.c ****         #define CY_CFG_MEMORY_BARRIER() __memory_changed()
  36:.\Generated_Source\PSoC4/cyfitter_cfg.c ****     #else
  37:.\Generated_Source\PSoC4/cyfitter_cfg.c ****         #define CY_CFG_MEMORY_BARRIER() __sync_synchronize()
  38:.\Generated_Source\PSoC4/cyfitter_cfg.c ****     #endif
  39:.\Generated_Source\PSoC4/cyfitter_cfg.c ****     
  40:.\Generated_Source\PSoC4/cyfitter_cfg.c **** #elif defined(__ICCARM__)
  41:.\Generated_Source\PSoC4/cyfitter_cfg.c ****     #include <intrinsics.h>
  42:.\Generated_Source\PSoC4/cyfitter_cfg.c **** 
  43:.\Generated_Source\PSoC4/cyfitter_cfg.c ****     #define CYPACKED __packed
  44:.\Generated_Source\PSoC4/cyfitter_cfg.c ****     #define CYPACKED_ATTR 
  45:.\Generated_Source\PSoC4/cyfitter_cfg.c ****     #define CYALIGNED _Pragma("data_alignment=4")
  46:.\Generated_Source\PSoC4/cyfitter_cfg.c ****     #define CY_CFG_UNUSED _Pragma("diag_suppress=Pe177")
  47:.\Generated_Source\PSoC4/cyfitter_cfg.c ****     #define CY_CFG_SECTION _Pragma("location=\".psocinit\"")
  48:.\Generated_Source\PSoC4/cyfitter_cfg.c ****     
  49:.\Generated_Source\PSoC4/cyfitter_cfg.c ****     #define CY_CFG_MEMORY_BARRIER() __DMB()
  50:.\Generated_Source\PSoC4/cyfitter_cfg.c ****     
  51:.\Generated_Source\PSoC4/cyfitter_cfg.c **** #else
  52:.\Generated_Source\PSoC4/cyfitter_cfg.c ****     #error Unsupported toolchain
  53:.\Generated_Source\PSoC4/cyfitter_cfg.c **** #endif
  54:.\Generated_Source\PSoC4/cyfitter_cfg.c **** 
  55:.\Generated_Source\PSoC4/cyfitter_cfg.c **** 
  56:.\Generated_Source\PSoC4/cyfitter_cfg.c **** CY_CFG_UNUSED
  57:.\Generated_Source\PSoC4/cyfitter_cfg.c **** static void CYMEMZERO(void *s, size_t n);
  58:.\Generated_Source\PSoC4/cyfitter_cfg.c **** CY_CFG_UNUSED
  59:.\Generated_Source\PSoC4/cyfitter_cfg.c **** static void CYMEMZERO(void *s, size_t n)
  60:.\Generated_Source\PSoC4/cyfitter_cfg.c **** {
  61:.\Generated_Source\PSoC4/cyfitter_cfg.c **** 	(void)memset(s, 0, n);
  62:.\Generated_Source\PSoC4/cyfitter_cfg.c **** }
  63:.\Generated_Source\PSoC4/cyfitter_cfg.c **** CY_CFG_UNUSED
  64:.\Generated_Source\PSoC4/cyfitter_cfg.c **** static void CYCONFIGCPY(void *dest, const void *src, size_t n);
  65:.\Generated_Source\PSoC4/cyfitter_cfg.c **** CY_CFG_UNUSED
  66:.\Generated_Source\PSoC4/cyfitter_cfg.c **** static void CYCONFIGCPY(void *dest, const void *src, size_t n)
  67:.\Generated_Source\PSoC4/cyfitter_cfg.c **** {
  68:.\Generated_Source\PSoC4/cyfitter_cfg.c **** 	(void)memcpy(dest, src, n);
  69:.\Generated_Source\PSoC4/cyfitter_cfg.c **** }
  70:.\Generated_Source\PSoC4/cyfitter_cfg.c **** CY_CFG_UNUSED
  71:.\Generated_Source\PSoC4/cyfitter_cfg.c **** static void CYCONFIGCPYCODE(void *dest, const void *src, size_t n);
  72:.\Generated_Source\PSoC4/cyfitter_cfg.c **** CY_CFG_UNUSED
  73:.\Generated_Source\PSoC4/cyfitter_cfg.c **** static void CYCONFIGCPYCODE(void *dest, const void *src, size_t n)
  74:.\Generated_Source\PSoC4/cyfitter_cfg.c **** {
  75:.\Generated_Source\PSoC4/cyfitter_cfg.c **** 	(void)memcpy(dest, src, n);
  76:.\Generated_Source\PSoC4/cyfitter_cfg.c **** }
  77:.\Generated_Source\PSoC4/cyfitter_cfg.c **** 
  78:.\Generated_Source\PSoC4/cyfitter_cfg.c **** 
  79:.\Generated_Source\PSoC4/cyfitter_cfg.c **** 
  80:.\Generated_Source\PSoC4/cyfitter_cfg.c **** /* Clock startup error codes                                                   */
  81:.\Generated_Source\PSoC4/cyfitter_cfg.c **** #define CYCLOCKSTART_NO_ERROR    0u
  82:.\Generated_Source\PSoC4/cyfitter_cfg.c **** #define CYCLOCKSTART_XTAL_ERROR  1u
  83:.\Generated_Source\PSoC4/cyfitter_cfg.c **** #define CYCLOCKSTART_32KHZ_ERROR 2u
  84:.\Generated_Source\PSoC4/cyfitter_cfg.c **** #define CYCLOCKSTART_PLL_ERROR   3u
  85:.\Generated_Source\PSoC4/cyfitter_cfg.c **** 
  86:.\Generated_Source\PSoC4/cyfitter_cfg.c **** #ifdef CY_NEED_CYCLOCKSTARTUPERROR
  87:.\Generated_Source\PSoC4/cyfitter_cfg.c **** /*******************************************************************************
  88:.\Generated_Source\PSoC4/cyfitter_cfg.c **** * Function Name: CyClockStartupError
  89:.\Generated_Source\PSoC4/cyfitter_cfg.c **** ********************************************************************************
  90:.\Generated_Source\PSoC4/cyfitter_cfg.c **** * Summary:
ARM GAS  C:\Users\Raulmo\AppData\Local\Temp\cckyDxud.s 			page 3


  91:.\Generated_Source\PSoC4/cyfitter_cfg.c **** *  If an error is encountered during clock configuration (crystal startup error,
  92:.\Generated_Source\PSoC4/cyfitter_cfg.c **** *  PLL lock error, etc.), the system will end up here.  Unless reimplemented by
  93:.\Generated_Source\PSoC4/cyfitter_cfg.c **** *  the customer, this function will stop in an infinite loop.
  94:.\Generated_Source\PSoC4/cyfitter_cfg.c **** *
  95:.\Generated_Source\PSoC4/cyfitter_cfg.c **** * Parameters:
  96:.\Generated_Source\PSoC4/cyfitter_cfg.c **** *   void
  97:.\Generated_Source\PSoC4/cyfitter_cfg.c **** *
  98:.\Generated_Source\PSoC4/cyfitter_cfg.c **** * Return:
  99:.\Generated_Source\PSoC4/cyfitter_cfg.c **** *   void
 100:.\Generated_Source\PSoC4/cyfitter_cfg.c **** *
 101:.\Generated_Source\PSoC4/cyfitter_cfg.c **** *******************************************************************************/
 102:.\Generated_Source\PSoC4/cyfitter_cfg.c **** CY_CFG_UNUSED
 103:.\Generated_Source\PSoC4/cyfitter_cfg.c **** static void CyClockStartupError(uint8 errorCode);
 104:.\Generated_Source\PSoC4/cyfitter_cfg.c **** CY_CFG_UNUSED
 105:.\Generated_Source\PSoC4/cyfitter_cfg.c **** static void CyClockStartupError(uint8 errorCode)
 106:.\Generated_Source\PSoC4/cyfitter_cfg.c **** {
 107:.\Generated_Source\PSoC4/cyfitter_cfg.c ****     /* To remove the compiler warning if errorCode not used.                */
 108:.\Generated_Source\PSoC4/cyfitter_cfg.c ****     errorCode = errorCode;
 109:.\Generated_Source\PSoC4/cyfitter_cfg.c **** 
 110:.\Generated_Source\PSoC4/cyfitter_cfg.c ****     /* `#START CyClockStartupError` */
 111:.\Generated_Source\PSoC4/cyfitter_cfg.c **** 
 112:.\Generated_Source\PSoC4/cyfitter_cfg.c ****     /* If we have a clock startup error (bad MHz crystal, PLL lock, etc.),  */
 113:.\Generated_Source\PSoC4/cyfitter_cfg.c ****     /* we will end up here to allow the customer to implement something to  */
 114:.\Generated_Source\PSoC4/cyfitter_cfg.c ****     /* deal with the clock condition.                                       */
 115:.\Generated_Source\PSoC4/cyfitter_cfg.c **** 
 116:.\Generated_Source\PSoC4/cyfitter_cfg.c ****     /* `#END` */
 117:.\Generated_Source\PSoC4/cyfitter_cfg.c **** 
 118:.\Generated_Source\PSoC4/cyfitter_cfg.c ****     /* If nothing else, stop here since the clocks have not started         */
 119:.\Generated_Source\PSoC4/cyfitter_cfg.c ****     /* correctly.                                                           */
 120:.\Generated_Source\PSoC4/cyfitter_cfg.c ****     while(1) {}
 121:.\Generated_Source\PSoC4/cyfitter_cfg.c **** }
 122:.\Generated_Source\PSoC4/cyfitter_cfg.c **** #endif
 123:.\Generated_Source\PSoC4/cyfitter_cfg.c **** 
 124:.\Generated_Source\PSoC4/cyfitter_cfg.c **** #define CY_CFG_BASE_ADDR_COUNT 5u
 125:.\Generated_Source\PSoC4/cyfitter_cfg.c **** CYPACKED typedef struct
 126:.\Generated_Source\PSoC4/cyfitter_cfg.c **** {
 127:.\Generated_Source\PSoC4/cyfitter_cfg.c **** 	uint8 offset;
 128:.\Generated_Source\PSoC4/cyfitter_cfg.c **** 	uint8 value;
 129:.\Generated_Source\PSoC4/cyfitter_cfg.c **** } CYPACKED_ATTR cy_cfg_addrvalue_t;
 130:.\Generated_Source\PSoC4/cyfitter_cfg.c **** 
 131:.\Generated_Source\PSoC4/cyfitter_cfg.c **** 
 132:.\Generated_Source\PSoC4/cyfitter_cfg.c **** 
 133:.\Generated_Source\PSoC4/cyfitter_cfg.c **** /*******************************************************************************
 134:.\Generated_Source\PSoC4/cyfitter_cfg.c **** * Function Name: cfg_write_bytes32
 135:.\Generated_Source\PSoC4/cyfitter_cfg.c **** ********************************************************************************
 136:.\Generated_Source\PSoC4/cyfitter_cfg.c **** * Summary:
 137:.\Generated_Source\PSoC4/cyfitter_cfg.c **** *  This function is used for setting up the chip configuration areas that
 138:.\Generated_Source\PSoC4/cyfitter_cfg.c **** *  contain relatively sparse data.
 139:.\Generated_Source\PSoC4/cyfitter_cfg.c **** *
 140:.\Generated_Source\PSoC4/cyfitter_cfg.c **** * Parameters:
 141:.\Generated_Source\PSoC4/cyfitter_cfg.c **** *   void
 142:.\Generated_Source\PSoC4/cyfitter_cfg.c **** *
 143:.\Generated_Source\PSoC4/cyfitter_cfg.c **** * Return:
 144:.\Generated_Source\PSoC4/cyfitter_cfg.c **** *   void
 145:.\Generated_Source\PSoC4/cyfitter_cfg.c **** *
 146:.\Generated_Source\PSoC4/cyfitter_cfg.c **** *******************************************************************************/
 147:.\Generated_Source\PSoC4/cyfitter_cfg.c **** static void cfg_write_bytes32(const uint32 addr_table[], const cy_cfg_addrvalue_t data_table[]);
ARM GAS  C:\Users\Raulmo\AppData\Local\Temp\cckyDxud.s 			page 4


 148:.\Generated_Source\PSoC4/cyfitter_cfg.c **** static void cfg_write_bytes32(const uint32 addr_table[], const cy_cfg_addrvalue_t data_table[])
 149:.\Generated_Source\PSoC4/cyfitter_cfg.c **** {
  25              		.loc 1 149 0
  26              		.cfi_startproc
  27              	.LVL0:
  28 0000 F0B5     		push	{r4, r5, r6, r7, lr}
  29              		.cfi_def_cfa_offset 20
  30              		.cfi_offset 4, -20
  31              		.cfi_offset 5, -16
  32              		.cfi_offset 6, -12
  33              		.cfi_offset 7, -8
  34              		.cfi_offset 14, -4
  35              	.LVL1:
 150:.\Generated_Source\PSoC4/cyfitter_cfg.c **** 	/* For 32-bit little-endian architectures */
 151:.\Generated_Source\PSoC4/cyfitter_cfg.c **** 	uint32 i, j = 0u;
  36              		.loc 1 151 0
  37 0002 0022     		mov	r2, #0
 152:.\Generated_Source\PSoC4/cyfitter_cfg.c **** 	for (i = 0u; i < CY_CFG_BASE_ADDR_COUNT; i++)
  38              		.loc 1 152 0
  39 0004 0027     		mov	r7, #0
  40              	.LBB2:
 153:.\Generated_Source\PSoC4/cyfitter_cfg.c **** 	{
 154:.\Generated_Source\PSoC4/cyfitter_cfg.c **** 		uint32 baseAddr = addr_table[i];
 155:.\Generated_Source\PSoC4/cyfitter_cfg.c **** 		uint8 count = (uint8)baseAddr;
 156:.\Generated_Source\PSoC4/cyfitter_cfg.c **** 		baseAddr &= 0xFFFFFF00u;
  41              		.loc 1 156 0
  42 0006 FF23     		mov	r3, #255
  43 0008 9C46     		mov	ip, r3
  44              	.LBE2:
 152:.\Generated_Source\PSoC4/cyfitter_cfg.c **** 	for (i = 0u; i < CY_CFG_BASE_ADDR_COUNT; i++)
  45              		.loc 1 152 0
  46 000a 11E0     		b	.L2
  47              	.LVL2:
  48              	.L5:
  49              	.LBB3:
 154:.\Generated_Source\PSoC4/cyfitter_cfg.c **** 		uint32 baseAddr = addr_table[i];
  50              		.loc 1 154 0
  51 000c BB00     		lsl	r3, r7, #2
  52 000e C658     		ldr	r6, [r0, r3]
  53              	.LVL3:
 155:.\Generated_Source\PSoC4/cyfitter_cfg.c **** 		uint8 count = (uint8)baseAddr;
  54              		.loc 1 155 0
  55 0010 F3B2     		uxtb	r3, r6
  56              	.LVL4:
  57              		.loc 1 156 0
  58 0012 6446     		mov	r4, ip
  59 0014 A643     		bic	r6, r4
  60              	.LVL5:
 157:.\Generated_Source\PSoC4/cyfitter_cfg.c **** 		while (count != 0u)
  61              		.loc 1 157 0
  62 0016 08E0     		b	.L3
  63              	.L4:
 158:.\Generated_Source\PSoC4/cyfitter_cfg.c **** 		{
 159:.\Generated_Source\PSoC4/cyfitter_cfg.c **** 			CY_SET_XTND_REG8((void CYFAR *)(baseAddr + data_table[j].offset), data_table[j].value);
  64              		.loc 1 159 0
  65 0018 5400     		lsl	r4, r2, #1
  66 001a 0C19     		add	r4, r1, r4
ARM GAS  C:\Users\Raulmo\AppData\Local\Temp\cckyDxud.s 			page 5


  67 001c 2578     		ldrb	r5, [r4]
  68 001e AD19     		add	r5, r5, r6
  69 0020 6478     		ldrb	r4, [r4, #1]
  70 0022 2C70     		strb	r4, [r5]
 160:.\Generated_Source\PSoC4/cyfitter_cfg.c **** 			j++;
  71              		.loc 1 160 0
  72 0024 0132     		add	r2, r2, #1
  73              	.LVL6:
 161:.\Generated_Source\PSoC4/cyfitter_cfg.c **** 			count--;
  74              		.loc 1 161 0
  75 0026 013B     		sub	r3, r3, #1
  76              	.LVL7:
  77 0028 DBB2     		uxtb	r3, r3
  78              	.LVL8:
  79              	.L3:
 157:.\Generated_Source\PSoC4/cyfitter_cfg.c **** 		while (count != 0u)
  80              		.loc 1 157 0 discriminator 1
  81 002a 002B     		cmp	r3, #0
  82 002c F4D1     		bne	.L4
  83              	.LBE3:
 152:.\Generated_Source\PSoC4/cyfitter_cfg.c **** 	for (i = 0u; i < CY_CFG_BASE_ADDR_COUNT; i++)
  84              		.loc 1 152 0
  85 002e 0137     		add	r7, r7, #1
  86              	.LVL9:
  87              	.L2:
 152:.\Generated_Source\PSoC4/cyfitter_cfg.c **** 	for (i = 0u; i < CY_CFG_BASE_ADDR_COUNT; i++)
  88              		.loc 1 152 0 is_stmt 0 discriminator 1
  89 0030 042F     		cmp	r7, #4
  90 0032 EBD9     		bls	.L5
 162:.\Generated_Source\PSoC4/cyfitter_cfg.c **** 		}
 163:.\Generated_Source\PSoC4/cyfitter_cfg.c **** 	}
 164:.\Generated_Source\PSoC4/cyfitter_cfg.c **** }
  91              		.loc 1 164 0 is_stmt 1
  92              		@ sp needed
  93              	.LVL10:
  94 0034 F0BD     		pop	{r4, r5, r6, r7, pc}
  95              		.cfi_endproc
  96              	.LFE5:
  97              		.size	cfg_write_bytes32, .-cfg_write_bytes32
  98 0036 C046     		.section	.text.CYMEMZERO,"ax",%progbits
  99              		.align	2
 100              		.code	16
 101              		.thumb_func
 102              		.type	CYMEMZERO, %function
 103              	CYMEMZERO:
 104              	.LFB2:
  60:.\Generated_Source\PSoC4/cyfitter_cfg.c **** {
 105              		.loc 1 60 0
 106              		.cfi_startproc
 107              	.LVL11:
 108 0000 08B5     		push	{r3, lr}
 109              		.cfi_def_cfa_offset 8
 110              		.cfi_offset 3, -8
 111              		.cfi_offset 14, -4
 112 0002 0A1C     		mov	r2, r1
  61:.\Generated_Source\PSoC4/cyfitter_cfg.c **** 	(void)memset(s, 0, n);
 113              		.loc 1 61 0
ARM GAS  C:\Users\Raulmo\AppData\Local\Temp\cckyDxud.s 			page 6


 114 0004 0021     		mov	r1, #0
 115              	.LVL12:
 116 0006 FFF7FEFF 		bl	memset
 117              	.LVL13:
  62:.\Generated_Source\PSoC4/cyfitter_cfg.c **** }
 118              		.loc 1 62 0
 119              		@ sp needed
 120 000a 08BD     		pop	{r3, pc}
 121              		.cfi_endproc
 122              	.LFE2:
 123              		.size	CYMEMZERO, .-CYMEMZERO
 124              		.section	.psocinit,"ax",%progbits
 125              		.align	2
 126              		.code	16
 127              		.thumb_func
 128              		.type	ClockSetup, %function
 129              	ClockSetup:
 130              	.LFB6:
 165:.\Generated_Source\PSoC4/cyfitter_cfg.c **** 
 166:.\Generated_Source\PSoC4/cyfitter_cfg.c **** 
 167:.\Generated_Source\PSoC4/cyfitter_cfg.c **** /*******************************************************************************
 168:.\Generated_Source\PSoC4/cyfitter_cfg.c **** * Function Name: ClockSetup
 169:.\Generated_Source\PSoC4/cyfitter_cfg.c **** ********************************************************************************
 170:.\Generated_Source\PSoC4/cyfitter_cfg.c **** *
 171:.\Generated_Source\PSoC4/cyfitter_cfg.c **** * Summary:
 172:.\Generated_Source\PSoC4/cyfitter_cfg.c **** *   Performs the initialization of all of the clocks in the device based on the
 173:.\Generated_Source\PSoC4/cyfitter_cfg.c **** *   settings in the Clock tab of the DWR.  This includes enabling the requested
 174:.\Generated_Source\PSoC4/cyfitter_cfg.c **** *   clocks and setting the necessary dividers to produce the desired frequency. 
 175:.\Generated_Source\PSoC4/cyfitter_cfg.c **** *
 176:.\Generated_Source\PSoC4/cyfitter_cfg.c **** * Parameters:
 177:.\Generated_Source\PSoC4/cyfitter_cfg.c **** *   void
 178:.\Generated_Source\PSoC4/cyfitter_cfg.c **** *
 179:.\Generated_Source\PSoC4/cyfitter_cfg.c **** * Return:
 180:.\Generated_Source\PSoC4/cyfitter_cfg.c **** *   void
 181:.\Generated_Source\PSoC4/cyfitter_cfg.c **** *
 182:.\Generated_Source\PSoC4/cyfitter_cfg.c **** *******************************************************************************/
 183:.\Generated_Source\PSoC4/cyfitter_cfg.c **** static void ClockSetup(void);
 184:.\Generated_Source\PSoC4/cyfitter_cfg.c **** CY_CFG_SECTION
 185:.\Generated_Source\PSoC4/cyfitter_cfg.c **** static void ClockSetup(void)
 186:.\Generated_Source\PSoC4/cyfitter_cfg.c **** {
 131              		.loc 1 186 0
 132              		.cfi_startproc
 133 0000 38B5     		push	{r3, r4, r5, lr}
 134              		.cfi_def_cfa_offset 16
 135              		.cfi_offset 3, -16
 136              		.cfi_offset 4, -12
 137              		.cfi_offset 5, -8
 138              		.cfi_offset 14, -4
 187:.\Generated_Source\PSoC4/cyfitter_cfg.c **** 
 188:.\Generated_Source\PSoC4/cyfitter_cfg.c **** 	/* Set Flash Cycles based on max possible frequency in case a glitch occurs during ClockSetup(). *
 189:.\Generated_Source\PSoC4/cyfitter_cfg.c **** 	CY_SET_REG32((void CYXDATA *)(CYREG_CPUSS_FLASH_CTL), (0x0012u));
 139              		.loc 1 189 0
 140 0002 1222     		mov	r2, #18
 141 0004 1C4B     		ldr	r3, .L8
 142 0006 1A60     		str	r2, [r3]
 190:.\Generated_Source\PSoC4/cyfitter_cfg.c **** 
 191:.\Generated_Source\PSoC4/cyfitter_cfg.c **** 	/* Start the WCO */
ARM GAS  C:\Users\Raulmo\AppData\Local\Temp\cckyDxud.s 			page 7


 192:.\Generated_Source\PSoC4/cyfitter_cfg.c **** 	CySysClkWcoStart();
 143              		.loc 1 192 0
 144 0008 FFF7FEFF 		bl	CySysClkWcoStart
 145              	.LVL14:
 193:.\Generated_Source\PSoC4/cyfitter_cfg.c **** 	CyDelayCycles(12000000u); /* WCO may take up to 500ms to start */
 146              		.loc 1 193 0
 147 000c 1B48     		ldr	r0, .L8+4
 148 000e FFF7FEFF 		bl	CyDelayCycles
 149              	.LVL15:
 194:.\Generated_Source\PSoC4/cyfitter_cfg.c **** 	(void)CySysClkWcoSetPowerMode(CY_SYS_CLK_WCO_LPM);    /* Switch to the low power mode */
 150              		.loc 1 194 0
 151 0012 0120     		mov	r0, #1
 152 0014 FFF7FEFF 		bl	CySysClkWcoSetPowerMode
 153              	.LVL16:
 195:.\Generated_Source\PSoC4/cyfitter_cfg.c **** 
 196:.\Generated_Source\PSoC4/cyfitter_cfg.c **** 	/* Setup and trim IMO based on desired frequency. */
 197:.\Generated_Source\PSoC4/cyfitter_cfg.c **** 	CySysClkWriteImoFreq(48u);
 154              		.loc 1 197 0
 155 0018 3020     		mov	r0, #48
 156 001a FFF7FEFF 		bl	CySysClkWriteImoFreq
 157              	.LVL17:
 198:.\Generated_Source\PSoC4/cyfitter_cfg.c **** 	/* CYDEV_CLK_ILO_CONFIG Starting address: CYDEV_CLK_ILO_CONFIG */
 199:.\Generated_Source\PSoC4/cyfitter_cfg.c **** 	CY_SET_XTND_REG32((void CYFAR *)(CYREG_CLK_ILO_CONFIG), 0x80000006u);
 158              		.loc 1 199 0
 159 001e 184A     		ldr	r2, .L8+8
 160 0020 184B     		ldr	r3, .L8+12
 161 0022 1A60     		str	r2, [r3]
 200:.\Generated_Source\PSoC4/cyfitter_cfg.c **** 
 201:.\Generated_Source\PSoC4/cyfitter_cfg.c **** 	/* CYDEV_WDT_CONFIG Starting address: CYDEV_WDT_CONFIG */
 202:.\Generated_Source\PSoC4/cyfitter_cfg.c **** 	CY_SET_XTND_REG32((void CYFAR *)(CYREG_WDT_CONFIG), 0x40000000u);
 162              		.loc 1 202 0
 163 0024 184C     		ldr	r4, .L8+16
 164 0026 8025     		mov	r5, #128
 165 0028 ED05     		lsl	r5, r5, #23
 166 002a 2560     		str	r5, [r4]
 203:.\Generated_Source\PSoC4/cyfitter_cfg.c **** 
 204:.\Generated_Source\PSoC4/cyfitter_cfg.c **** 
 205:.\Generated_Source\PSoC4/cyfitter_cfg.c **** 	/* Enable fast start mode for XO */
 206:.\Generated_Source\PSoC4/cyfitter_cfg.c **** 	CY_SET_REG32((void*)CYREG_BLE_BLERD_BB_XO, CY_GET_REG32((void*)CYREG_BLE_BLERD_BB_XO) | (uint32)0x
 167              		.loc 1 206 0
 168 002c 174B     		ldr	r3, .L8+20
 169 002e 1968     		ldr	r1, [r3]
 170 0030 0222     		mov	r2, #2
 171 0032 0A43     		orr	r2, r1
 172 0034 1A60     		str	r2, [r3]
 207:.\Generated_Source\PSoC4/cyfitter_cfg.c **** 	CY_SET_XTND_REG32((void CYFAR *)(CYREG_BLE_BLERD_BB_XO_CAPTRIM), 0x00003E2Du);
 173              		.loc 1 207 0
 174 0036 164A     		ldr	r2, .L8+24
 175 0038 164B     		ldr	r3, .L8+28
 176 003a 1A60     		str	r2, [r3]
 208:.\Generated_Source\PSoC4/cyfitter_cfg.c **** 	/* Disable Crystal Stable Interrupt before enabling ECO */
 209:.\Generated_Source\PSoC4/cyfitter_cfg.c **** 	CY_SET_REG32((void*)CYREG_BLE_BLESS_LL_DSM_CTRL, CY_GET_REG32((void*)CYREG_BLE_BLESS_LL_DSM_CTRL) 
 177              		.loc 1 209 0
 178 003c 164B     		ldr	r3, .L8+32
 179 003e 1A68     		ldr	r2, [r3]
 180 0040 0821     		mov	r1, #8
 181 0042 8A43     		bic	r2, r1
ARM GAS  C:\Users\Raulmo\AppData\Local\Temp\cckyDxud.s 			page 8


 182 0044 1A60     		str	r2, [r3]
 210:.\Generated_Source\PSoC4/cyfitter_cfg.c **** 	/* Start the ECO and do not check status since it is not needed for HFCLK */
 211:.\Generated_Source\PSoC4/cyfitter_cfg.c **** 	(void)CySysClkEcoStart(2000u);
 183              		.loc 1 211 0
 184 0046 FA20     		mov	r0, #250
 185 0048 C000     		lsl	r0, r0, #3
 186 004a FFF7FEFF 		bl	CySysClkEcoStart
 187              	.LVL18:
 212:.\Generated_Source\PSoC4/cyfitter_cfg.c **** 	CyDelayUs(1500u); /* Wait to stabalize */
 188              		.loc 1 212 0
 189 004e 1348     		ldr	r0, .L8+36
 190 0050 FFF7FEFF 		bl	CyDelayUs
 191              	.LVL19:
 213:.\Generated_Source\PSoC4/cyfitter_cfg.c **** 
 214:.\Generated_Source\PSoC4/cyfitter_cfg.c **** 	/* Setup phase aligned clocks */
 215:.\Generated_Source\PSoC4/cyfitter_cfg.c **** 
 216:.\Generated_Source\PSoC4/cyfitter_cfg.c **** 	/* CYDEV_CLK_IMO_CONFIG Starting address: CYDEV_CLK_IMO_CONFIG */
 217:.\Generated_Source\PSoC4/cyfitter_cfg.c **** 	CY_SET_XTND_REG32((void CYFAR *)(CYREG_CLK_IMO_CONFIG), 0x80000000u);
 192              		.loc 1 217 0
 193 0054 8022     		mov	r2, #128
 194 0056 1206     		lsl	r2, r2, #24
 195 0058 114B     		ldr	r3, .L8+40
 196 005a 1A60     		str	r2, [r3]
 218:.\Generated_Source\PSoC4/cyfitter_cfg.c **** 
 219:.\Generated_Source\PSoC4/cyfitter_cfg.c **** 	/* CYDEV_CLK_SELECT Starting address: CYDEV_CLK_SELECT */
 220:.\Generated_Source\PSoC4/cyfitter_cfg.c **** 	CY_SET_XTND_REG32((void CYFAR *)(CYREG_CLK_SELECT), 0x00040000u);
 197              		.loc 1 220 0
 198 005c 8022     		mov	r2, #128
 199 005e D202     		lsl	r2, r2, #11
 200 0060 104B     		ldr	r3, .L8+44
 201 0062 1A60     		str	r2, [r3]
 221:.\Generated_Source\PSoC4/cyfitter_cfg.c **** 
 222:.\Generated_Source\PSoC4/cyfitter_cfg.c **** 	(void)CyIntSetVector(8u, &CySysWdtIsr);
 202              		.loc 1 222 0
 203 0064 0820     		mov	r0, #8
 204 0066 1049     		ldr	r1, .L8+48
 205 0068 FFF7FEFF 		bl	CyIntSetVector
 206              	.LVL20:
 223:.\Generated_Source\PSoC4/cyfitter_cfg.c **** 	CyIntEnable(8u);
 207              		.loc 1 223 0
 208 006c 0820     		mov	r0, #8
 209 006e FFF7FEFF 		bl	CyIntEnable
 210              	.LVL21:
 224:.\Generated_Source\PSoC4/cyfitter_cfg.c **** 	CY_SET_XTND_REG32((void CYFAR *)(CYREG_WDT_CONFIG), 0x40000000u);
 211              		.loc 1 224 0
 212 0072 2560     		str	r5, [r4]
 225:.\Generated_Source\PSoC4/cyfitter_cfg.c **** }
 213              		.loc 1 225 0
 214              		@ sp needed
 215 0074 38BD     		pop	{r3, r4, r5, pc}
 216              	.L9:
 217 0076 C046     		.align	2
 218              	.L8:
 219 0078 30001040 		.word	1074790448
 220 007c 001BB700 		.word	12000000
 221 0080 06000080 		.word	-2147483642
 222 0084 04010B40 		.word	1074462980
ARM GAS  C:\Users\Raulmo\AppData\Local\Temp\cckyDxud.s 			page 9


 223 0088 0C020B40 		.word	1074463244
 224 008c 78002E40 		.word	1076756600
 225 0090 2D3E0000 		.word	15917
 226 0094 7C002E40 		.word	1076756604
 227 0098 6CF02E40 		.word	1076818028
 228 009c DC050000 		.word	1500
 229 00a0 08010B40 		.word	1074462984
 230 00a4 00010B40 		.word	1074462976
 231 00a8 00000000 		.word	CySysWdtIsr
 232              		.cfi_endproc
 233              	.LFE6:
 234              		.size	ClockSetup, .-ClockSetup
 235              		.section	.text.SetAnalogRoutingPumps,"ax",%progbits
 236              		.align	2
 237              		.global	SetAnalogRoutingPumps
 238              		.code	16
 239              		.thumb_func
 240              		.type	SetAnalogRoutingPumps, %function
 241              	SetAnalogRoutingPumps:
 242              	.LFB8:
 226:.\Generated_Source\PSoC4/cyfitter_cfg.c **** 
 227:.\Generated_Source\PSoC4/cyfitter_cfg.c **** 
 228:.\Generated_Source\PSoC4/cyfitter_cfg.c **** /* Analog API Functions */
 229:.\Generated_Source\PSoC4/cyfitter_cfg.c **** 
 230:.\Generated_Source\PSoC4/cyfitter_cfg.c **** 
 231:.\Generated_Source\PSoC4/cyfitter_cfg.c **** /*******************************************************************************
 232:.\Generated_Source\PSoC4/cyfitter_cfg.c **** * Function Name: AnalogSetDefault
 233:.\Generated_Source\PSoC4/cyfitter_cfg.c **** ********************************************************************************
 234:.\Generated_Source\PSoC4/cyfitter_cfg.c **** *
 235:.\Generated_Source\PSoC4/cyfitter_cfg.c **** * Summary:
 236:.\Generated_Source\PSoC4/cyfitter_cfg.c **** *  Sets up the analog portions of the chip to default values based on chip
 237:.\Generated_Source\PSoC4/cyfitter_cfg.c **** *  configuration options from the project.
 238:.\Generated_Source\PSoC4/cyfitter_cfg.c **** *
 239:.\Generated_Source\PSoC4/cyfitter_cfg.c **** * Parameters:
 240:.\Generated_Source\PSoC4/cyfitter_cfg.c **** *  void
 241:.\Generated_Source\PSoC4/cyfitter_cfg.c **** *
 242:.\Generated_Source\PSoC4/cyfitter_cfg.c **** * Return:
 243:.\Generated_Source\PSoC4/cyfitter_cfg.c **** *  void
 244:.\Generated_Source\PSoC4/cyfitter_cfg.c **** *
 245:.\Generated_Source\PSoC4/cyfitter_cfg.c **** *******************************************************************************/
 246:.\Generated_Source\PSoC4/cyfitter_cfg.c **** static void AnalogSetDefault(void);
 247:.\Generated_Source\PSoC4/cyfitter_cfg.c **** static void AnalogSetDefault(void)
 248:.\Generated_Source\PSoC4/cyfitter_cfg.c **** {
 249:.\Generated_Source\PSoC4/cyfitter_cfg.c **** 	CY_SET_XTND_REG32((void CYFAR *)CYREG_HSIOM_AMUX_SPLIT_CTL2, 0x00000003u);
 250:.\Generated_Source\PSoC4/cyfitter_cfg.c **** 	CY_SET_XTND_REG32((void CYFAR *)CYREG_CTBM0_DFT_CTRL, 0x00000003u);
 251:.\Generated_Source\PSoC4/cyfitter_cfg.c **** 	CY_SET_XTND_REG32((void CYFAR *)CYREG_CTBM1_DFT_CTRL, 0x00000003u);
 252:.\Generated_Source\PSoC4/cyfitter_cfg.c **** 	CY_SET_XTND_REG32((void CYFAR *)CYREG_PASS_DSAB_DSAB_CTRL, 0x00000000u);
 253:.\Generated_Source\PSoC4/cyfitter_cfg.c **** 	SetAnalogRoutingPumps(1);
 254:.\Generated_Source\PSoC4/cyfitter_cfg.c **** }
 255:.\Generated_Source\PSoC4/cyfitter_cfg.c **** 
 256:.\Generated_Source\PSoC4/cyfitter_cfg.c **** 
 257:.\Generated_Source\PSoC4/cyfitter_cfg.c **** /*******************************************************************************
 258:.\Generated_Source\PSoC4/cyfitter_cfg.c **** * Function Name: SetAnalogRoutingPumps
 259:.\Generated_Source\PSoC4/cyfitter_cfg.c **** ********************************************************************************
 260:.\Generated_Source\PSoC4/cyfitter_cfg.c **** *
 261:.\Generated_Source\PSoC4/cyfitter_cfg.c **** * Summary:
 262:.\Generated_Source\PSoC4/cyfitter_cfg.c **** * Enables or disables the analog pumps feeding analog routing switches.
ARM GAS  C:\Users\Raulmo\AppData\Local\Temp\cckyDxud.s 			page 10


 263:.\Generated_Source\PSoC4/cyfitter_cfg.c **** * Intended to be called at startup, based on the Vdda system configuration;
 264:.\Generated_Source\PSoC4/cyfitter_cfg.c **** * may be called during operation when the user informs us that the Vdda voltage crossed the pump th
 265:.\Generated_Source\PSoC4/cyfitter_cfg.c **** *
 266:.\Generated_Source\PSoC4/cyfitter_cfg.c **** * Parameters:
 267:.\Generated_Source\PSoC4/cyfitter_cfg.c **** *  enabled - 1 to enable the pumps, 0 to disable the pumps
 268:.\Generated_Source\PSoC4/cyfitter_cfg.c **** *
 269:.\Generated_Source\PSoC4/cyfitter_cfg.c **** * Return:
 270:.\Generated_Source\PSoC4/cyfitter_cfg.c **** *  void
 271:.\Generated_Source\PSoC4/cyfitter_cfg.c **** *
 272:.\Generated_Source\PSoC4/cyfitter_cfg.c **** *******************************************************************************/
 273:.\Generated_Source\PSoC4/cyfitter_cfg.c **** void SetAnalogRoutingPumps(uint8 enabled)
 274:.\Generated_Source\PSoC4/cyfitter_cfg.c **** {
 243              		.loc 1 274 0
 244              		.cfi_startproc
 245              	.LVL22:
 275:.\Generated_Source\PSoC4/cyfitter_cfg.c **** 	uint32 regValue = CY_GET_XTND_REG32((void *)(CYREG_SAR_PUMP_CTRL));
 246              		.loc 1 275 0
 247 0000 0C4B     		ldr	r3, .L15
 248 0002 1B68     		ldr	r3, [r3]
 249              	.LVL23:
 276:.\Generated_Source\PSoC4/cyfitter_cfg.c **** 	if (enabled != 0u)
 250              		.loc 1 276 0
 251 0004 0028     		cmp	r0, #0
 252 0006 03D0     		beq	.L11
 277:.\Generated_Source\PSoC4/cyfitter_cfg.c **** 	{
 278:.\Generated_Source\PSoC4/cyfitter_cfg.c **** 		regValue |= 0x80000000u;
 253              		.loc 1 278 0
 254 0008 8022     		mov	r2, #128
 255 000a 1206     		lsl	r2, r2, #24
 256 000c 1A43     		orr	r2, r3
 257              	.LVL24:
 258 000e 01E0     		b	.L12
 259              	.LVL25:
 260              	.L11:
 279:.\Generated_Source\PSoC4/cyfitter_cfg.c **** 	}
 280:.\Generated_Source\PSoC4/cyfitter_cfg.c **** 	else
 281:.\Generated_Source\PSoC4/cyfitter_cfg.c **** 	{
 282:.\Generated_Source\PSoC4/cyfitter_cfg.c **** 		regValue &= ~0x80000000u;
 261              		.loc 1 282 0
 262 0010 5A00     		lsl	r2, r3, #1
 263 0012 5208     		lsr	r2, r2, #1
 264              	.LVL26:
 265              	.L12:
 283:.\Generated_Source\PSoC4/cyfitter_cfg.c **** 	}
 284:.\Generated_Source\PSoC4/cyfitter_cfg.c **** 	CY_SET_XTND_REG32((void *)(CYREG_SAR_PUMP_CTRL), regValue);
 266              		.loc 1 284 0
 267 0014 074B     		ldr	r3, .L15
 268 0016 1A60     		str	r2, [r3]
 285:.\Generated_Source\PSoC4/cyfitter_cfg.c **** 	regValue = CY_GET_XTND_REG32((void *)(CYREG_CLK_IMO_CONFIG));
 269              		.loc 1 285 0
 270 0018 074B     		ldr	r3, .L15+4
 271 001a 1B68     		ldr	r3, [r3]
 272              	.LVL27:
 286:.\Generated_Source\PSoC4/cyfitter_cfg.c **** 	if (enabled != 0u)
 273              		.loc 1 286 0
 274 001c 0028     		cmp	r0, #0
 275 001e 03D0     		beq	.L13
ARM GAS  C:\Users\Raulmo\AppData\Local\Temp\cckyDxud.s 			page 11


 287:.\Generated_Source\PSoC4/cyfitter_cfg.c **** 	{
 288:.\Generated_Source\PSoC4/cyfitter_cfg.c **** 		regValue |= 0x02000000u;
 276              		.loc 1 288 0
 277 0020 8022     		mov	r2, #128
 278 0022 9204     		lsl	r2, r2, #18
 279 0024 1A43     		orr	r2, r3
 280              	.LVL28:
 281 0026 01E0     		b	.L14
 282              	.LVL29:
 283              	.L13:
 289:.\Generated_Source\PSoC4/cyfitter_cfg.c **** 	}
 290:.\Generated_Source\PSoC4/cyfitter_cfg.c **** 	else
 291:.\Generated_Source\PSoC4/cyfitter_cfg.c **** 	{
 292:.\Generated_Source\PSoC4/cyfitter_cfg.c **** 		regValue &= ~0x02000000u;
 284              		.loc 1 292 0
 285 0028 044A     		ldr	r2, .L15+8
 286 002a 1A40     		and	r2, r3
 287              	.LVL30:
 288              	.L14:
 293:.\Generated_Source\PSoC4/cyfitter_cfg.c **** 	}
 294:.\Generated_Source\PSoC4/cyfitter_cfg.c **** 	CY_SET_XTND_REG32((void *)(CYREG_CLK_IMO_CONFIG), regValue);
 289              		.loc 1 294 0
 290 002c 024B     		ldr	r3, .L15+4
 291 002e 1A60     		str	r2, [r3]
 295:.\Generated_Source\PSoC4/cyfitter_cfg.c **** }
 292              		.loc 1 295 0
 293              		@ sp needed
 294 0030 7047     		bx	lr
 295              	.L16:
 296 0032 C046     		.align	2
 297              	.L15:
 298 0034 80033A40 		.word	1077543808
 299 0038 08010B40 		.word	1074462984
 300 003c FFFFFFFD 		.word	-33554433
 301              		.cfi_endproc
 302              	.LFE8:
 303              		.size	SetAnalogRoutingPumps, .-SetAnalogRoutingPumps
 304              		.section	.text.AnalogSetDefault,"ax",%progbits
 305              		.align	2
 306              		.code	16
 307              		.thumb_func
 308              		.type	AnalogSetDefault, %function
 309              	AnalogSetDefault:
 310              	.LFB7:
 248:.\Generated_Source\PSoC4/cyfitter_cfg.c **** {
 311              		.loc 1 248 0
 312              		.cfi_startproc
 313 0000 08B5     		push	{r3, lr}
 314              		.cfi_def_cfa_offset 8
 315              		.cfi_offset 3, -8
 316              		.cfi_offset 14, -4
 249:.\Generated_Source\PSoC4/cyfitter_cfg.c **** 	CY_SET_XTND_REG32((void CYFAR *)CYREG_HSIOM_AMUX_SPLIT_CTL2, 0x00000003u);
 317              		.loc 1 249 0
 318 0002 0323     		mov	r3, #3
 319 0004 064A     		ldr	r2, .L18
 320 0006 1360     		str	r3, [r2]
 250:.\Generated_Source\PSoC4/cyfitter_cfg.c **** 	CY_SET_XTND_REG32((void CYFAR *)CYREG_CTBM0_DFT_CTRL, 0x00000003u);
ARM GAS  C:\Users\Raulmo\AppData\Local\Temp\cckyDxud.s 			page 12


 321              		.loc 1 250 0
 322 0008 064A     		ldr	r2, .L18+4
 323 000a 1360     		str	r3, [r2]
 251:.\Generated_Source\PSoC4/cyfitter_cfg.c **** 	CY_SET_XTND_REG32((void CYFAR *)CYREG_CTBM1_DFT_CTRL, 0x00000003u);
 324              		.loc 1 251 0
 325 000c 064A     		ldr	r2, .L18+8
 326 000e 1360     		str	r3, [r2]
 252:.\Generated_Source\PSoC4/cyfitter_cfg.c **** 	CY_SET_XTND_REG32((void CYFAR *)CYREG_PASS_DSAB_DSAB_CTRL, 0x00000000u);
 327              		.loc 1 252 0
 328 0010 0022     		mov	r2, #0
 329 0012 064B     		ldr	r3, .L18+12
 330 0014 1A60     		str	r2, [r3]
 253:.\Generated_Source\PSoC4/cyfitter_cfg.c **** 	SetAnalogRoutingPumps(1);
 331              		.loc 1 253 0
 332 0016 0120     		mov	r0, #1
 333 0018 FFF7FEFF 		bl	SetAnalogRoutingPumps
 334              	.LVL31:
 254:.\Generated_Source\PSoC4/cyfitter_cfg.c **** }
 335              		.loc 1 254 0
 336              		@ sp needed
 337 001c 08BD     		pop	{r3, pc}
 338              	.L19:
 339 001e C046     		.align	2
 340              	.L18:
 341 0020 08210240 		.word	1073881352
 342 0024 30003040 		.word	1076887600
 343 0028 30003140 		.word	1076953136
 344 002c 000E3F40 		.word	1077874176
 345              		.cfi_endproc
 346              	.LFE7:
 347              		.size	AnalogSetDefault, .-AnalogSetDefault
 348              		.section	.psocinit
 349              		.align	2
 350              		.global	cyfitter_cfg
 351              		.code	16
 352              		.thumb_func
 353              		.type	cyfitter_cfg, %function
 354              	cyfitter_cfg:
 355              	.LFB9:
 296:.\Generated_Source\PSoC4/cyfitter_cfg.c **** 
 297:.\Generated_Source\PSoC4/cyfitter_cfg.c **** #define CY_AMUX_UNUSED CYREG_CM0_ROM_DWT
 298:.\Generated_Source\PSoC4/cyfitter_cfg.c **** 
 299:.\Generated_Source\PSoC4/cyfitter_cfg.c **** 
 300:.\Generated_Source\PSoC4/cyfitter_cfg.c **** /*******************************************************************************
 301:.\Generated_Source\PSoC4/cyfitter_cfg.c **** * Function Name: cyfitter_cfg
 302:.\Generated_Source\PSoC4/cyfitter_cfg.c **** ********************************************************************************
 303:.\Generated_Source\PSoC4/cyfitter_cfg.c **** * Summary:
 304:.\Generated_Source\PSoC4/cyfitter_cfg.c **** *  This function is called by the start-up code for the selected device. It
 305:.\Generated_Source\PSoC4/cyfitter_cfg.c **** *  performs all of the necessary device configuration based on the design
 306:.\Generated_Source\PSoC4/cyfitter_cfg.c **** *  settings.  This includes settings from the Design Wide Resources (DWR) such
 307:.\Generated_Source\PSoC4/cyfitter_cfg.c **** *  as Clocks and Pins as well as any component configuration that is necessary.
 308:.\Generated_Source\PSoC4/cyfitter_cfg.c **** *
 309:.\Generated_Source\PSoC4/cyfitter_cfg.c **** * Parameters:  
 310:.\Generated_Source\PSoC4/cyfitter_cfg.c **** *   void
 311:.\Generated_Source\PSoC4/cyfitter_cfg.c **** *
 312:.\Generated_Source\PSoC4/cyfitter_cfg.c **** * Return:
 313:.\Generated_Source\PSoC4/cyfitter_cfg.c **** *   void
ARM GAS  C:\Users\Raulmo\AppData\Local\Temp\cckyDxud.s 			page 13


 314:.\Generated_Source\PSoC4/cyfitter_cfg.c **** *
 315:.\Generated_Source\PSoC4/cyfitter_cfg.c **** *******************************************************************************/
 316:.\Generated_Source\PSoC4/cyfitter_cfg.c **** CY_CFG_SECTION
 317:.\Generated_Source\PSoC4/cyfitter_cfg.c **** void cyfitter_cfg(void)
 318:.\Generated_Source\PSoC4/cyfitter_cfg.c **** {
 356              		.loc 1 318 0
 357              		.cfi_startproc
 358 00ac 38B5     		push	{r3, r4, r5, lr}
 359              		.cfi_def_cfa_offset 16
 360              		.cfi_offset 3, -16
 361              		.cfi_offset 4, -12
 362              		.cfi_offset 5, -8
 363              		.cfi_offset 14, -4
 319:.\Generated_Source\PSoC4/cyfitter_cfg.c **** 	/* Disable interrupts by default. Let user enable if/when they want. */
 320:.\Generated_Source\PSoC4/cyfitter_cfg.c **** 	CyGlobalIntDisable;
 364              		.loc 1 320 0
 365              	@ 320 ".\Generated_Source\PSoC4\cyfitter_cfg.c" 1
 366 00ae 72B6     		CPSID   i
 367              	@ 0 "" 2
 321:.\Generated_Source\PSoC4/cyfitter_cfg.c **** 
 322:.\Generated_Source\PSoC4/cyfitter_cfg.c **** 	CY_SET_XTND_REG32((void CYFAR *)(CYREG_BLE_BLESS_LL_DSM_CTRL), 0x00000000u);
 368              		.loc 1 322 0
 369              		.code	16
 370 00b0 0022     		mov	r2, #0
 371 00b2 294B     		ldr	r3, .L23
 372 00b4 1A60     		str	r2, [r3]
 373              	.LVL32:
 374              	.LBB4:
 323:.\Generated_Source\PSoC4/cyfitter_cfg.c **** 
 324:.\Generated_Source\PSoC4/cyfitter_cfg.c **** 	{
 325:.\Generated_Source\PSoC4/cyfitter_cfg.c **** 		static const uint32 CYCODE cy_cfg_addr_table[] = {
 326:.\Generated_Source\PSoC4/cyfitter_cfg.c **** 			0x400F3004u, /* Base address: 0x400F3000 Count: 4 */
 327:.\Generated_Source\PSoC4/cyfitter_cfg.c **** 			0x400F3102u, /* Base address: 0x400F3100 Count: 2 */
 328:.\Generated_Source\PSoC4/cyfitter_cfg.c **** 			0x400F3302u, /* Base address: 0x400F3300 Count: 2 */
 329:.\Generated_Source\PSoC4/cyfitter_cfg.c **** 			0x400F4002u, /* Base address: 0x400F4000 Count: 2 */
 330:.\Generated_Source\PSoC4/cyfitter_cfg.c **** 			0x400F4107u, /* Base address: 0x400F4100 Count: 7 */
 331:.\Generated_Source\PSoC4/cyfitter_cfg.c **** 		};
 332:.\Generated_Source\PSoC4/cyfitter_cfg.c **** 
 333:.\Generated_Source\PSoC4/cyfitter_cfg.c **** 		static const cy_cfg_addrvalue_t CYCODE cy_cfg_data_table[] = {
 334:.\Generated_Source\PSoC4/cyfitter_cfg.c **** 			{0x38u, 0x28u},
 335:.\Generated_Source\PSoC4/cyfitter_cfg.c **** 			{0x3Eu, 0x14u},
 336:.\Generated_Source\PSoC4/cyfitter_cfg.c **** 			{0x58u, 0x04u},
 337:.\Generated_Source\PSoC4/cyfitter_cfg.c **** 			{0x5Fu, 0x01u},
 338:.\Generated_Source\PSoC4/cyfitter_cfg.c **** 			{0x1Au, 0x04u},
 339:.\Generated_Source\PSoC4/cyfitter_cfg.c **** 			{0x1Bu, 0x04u},
 340:.\Generated_Source\PSoC4/cyfitter_cfg.c **** 			{0xABu, 0x04u},
 341:.\Generated_Source\PSoC4/cyfitter_cfg.c **** 			{0xAEu, 0x04u},
 342:.\Generated_Source\PSoC4/cyfitter_cfg.c **** 			{0x53u, 0x20u},
 343:.\Generated_Source\PSoC4/cyfitter_cfg.c **** 			{0xD4u, 0x20u},
 344:.\Generated_Source\PSoC4/cyfitter_cfg.c **** 			{0x3Bu, 0x04u},
 345:.\Generated_Source\PSoC4/cyfitter_cfg.c **** 			{0x93u, 0x04u},
 346:.\Generated_Source\PSoC4/cyfitter_cfg.c **** 			{0xABu, 0x20u},
 347:.\Generated_Source\PSoC4/cyfitter_cfg.c **** 			{0xAFu, 0x04u},
 348:.\Generated_Source\PSoC4/cyfitter_cfg.c **** 			{0xCEu, 0x40u},
 349:.\Generated_Source\PSoC4/cyfitter_cfg.c **** 			{0xEAu, 0x40u},
 350:.\Generated_Source\PSoC4/cyfitter_cfg.c **** 			{0xEEu, 0x20u},
 351:.\Generated_Source\PSoC4/cyfitter_cfg.c **** 		};
ARM GAS  C:\Users\Raulmo\AppData\Local\Temp\cckyDxud.s 			page 14


 352:.\Generated_Source\PSoC4/cyfitter_cfg.c **** 
 353:.\Generated_Source\PSoC4/cyfitter_cfg.c **** 
 354:.\Generated_Source\PSoC4/cyfitter_cfg.c **** 
 355:.\Generated_Source\PSoC4/cyfitter_cfg.c **** 		CYPACKED typedef struct {
 356:.\Generated_Source\PSoC4/cyfitter_cfg.c **** 			void CYFAR *address;
 357:.\Generated_Source\PSoC4/cyfitter_cfg.c **** 			uint16 size;
 358:.\Generated_Source\PSoC4/cyfitter_cfg.c **** 		} CYPACKED_ATTR cfg_memset_t;
 359:.\Generated_Source\PSoC4/cyfitter_cfg.c **** 
 360:.\Generated_Source\PSoC4/cyfitter_cfg.c **** 		static const cfg_memset_t CYCODE cfg_memset_list [] = {
 361:.\Generated_Source\PSoC4/cyfitter_cfg.c **** 			/* address, size */
 362:.\Generated_Source\PSoC4/cyfitter_cfg.c **** 			{(void CYFAR *)(CYDEV_UDB_P0_U0_BASE), 1024u},
 363:.\Generated_Source\PSoC4/cyfitter_cfg.c **** 			{(void CYFAR *)(CYDEV_UDB_DSI0_BASE), 1024u},
 364:.\Generated_Source\PSoC4/cyfitter_cfg.c **** 		};
 365:.\Generated_Source\PSoC4/cyfitter_cfg.c **** 
 366:.\Generated_Source\PSoC4/cyfitter_cfg.c **** 		uint8 CYDATA i;
 367:.\Generated_Source\PSoC4/cyfitter_cfg.c **** 
 368:.\Generated_Source\PSoC4/cyfitter_cfg.c **** 		/* Zero out critical memory blocks before beginning configuration */
 369:.\Generated_Source\PSoC4/cyfitter_cfg.c **** 		for (i = 0u; i < (sizeof(cfg_memset_list)/sizeof(cfg_memset_list[0])); i++)
 375              		.loc 1 369 0
 376 00b6 0024     		mov	r4, #0
 377              	.LBB5:
 370:.\Generated_Source\PSoC4/cyfitter_cfg.c **** 		{
 371:.\Generated_Source\PSoC4/cyfitter_cfg.c **** 			const cfg_memset_t CYCODE * CYDATA ms = &cfg_memset_list[i];
 378              		.loc 1 371 0
 379 00b8 284D     		ldr	r5, .L23+4
 380              	.LBE5:
 369:.\Generated_Source\PSoC4/cyfitter_cfg.c **** 		for (i = 0u; i < (sizeof(cfg_memset_list)/sizeof(cfg_memset_list[0])); i++)
 381              		.loc 1 369 0
 382 00ba 0CE0     		b	.L21
 383              	.LVL33:
 384              	.L22:
 385              	.LBB6:
 386              		.loc 1 371 0 discriminator 2
 387 00bc 6300     		lsl	r3, r4, #1
 388 00be 1B19     		add	r3, r3, r4
 389 00c0 5B00     		lsl	r3, r3, #1
 390 00c2 EB18     		add	r3, r5, r3
 391              	.LVL34:
 372:.\Generated_Source\PSoC4/cyfitter_cfg.c **** 			CYMEMZERO(ms->address, (size_t)(uint32)(ms->size));
 392              		.loc 1 372 0 discriminator 2
 393 00c4 9988     		ldrh	r1, [r3, #4]
 394 00c6 1A88     		ldrh	r2, [r3]
 395 00c8 5888     		ldrh	r0, [r3, #2]
 396 00ca 0004     		lsl	r0, r0, #16
 397 00cc 1043     		orr	r0, r2
 398 00ce FFF7FEFF 		bl	CYMEMZERO
 399              	.LVL35:
 400              	.LBE6:
 369:.\Generated_Source\PSoC4/cyfitter_cfg.c **** 		for (i = 0u; i < (sizeof(cfg_memset_list)/sizeof(cfg_memset_list[0])); i++)
 401              		.loc 1 369 0 discriminator 2
 402 00d2 0134     		add	r4, r4, #1
 403              	.LVL36:
 404 00d4 E4B2     		uxtb	r4, r4
 405              	.LVL37:
 406              	.L21:
 369:.\Generated_Source\PSoC4/cyfitter_cfg.c **** 		for (i = 0u; i < (sizeof(cfg_memset_list)/sizeof(cfg_memset_list[0])); i++)
 407              		.loc 1 369 0 is_stmt 0 discriminator 1
ARM GAS  C:\Users\Raulmo\AppData\Local\Temp\cckyDxud.s 			page 15


 408 00d6 012C     		cmp	r4, #1
 409 00d8 F0D9     		bls	.L22
 373:.\Generated_Source\PSoC4/cyfitter_cfg.c **** 		}
 374:.\Generated_Source\PSoC4/cyfitter_cfg.c **** 
 375:.\Generated_Source\PSoC4/cyfitter_cfg.c **** 		cfg_write_bytes32(cy_cfg_addr_table, cy_cfg_data_table);
 410              		.loc 1 375 0 is_stmt 1
 411 00da 2049     		ldr	r1, .L23+4
 412 00dc 081C     		mov	r0, r1
 413 00de 0C30     		add	r0, r0, #12
 414 00e0 2031     		add	r1, r1, #32
 415 00e2 FFF7FEFF 		bl	cfg_write_bytes32
 416              	.LVL38:
 376:.\Generated_Source\PSoC4/cyfitter_cfg.c **** 
 377:.\Generated_Source\PSoC4/cyfitter_cfg.c **** 		/* HSIOM Starting address: CYDEV_HSIOM_BASE */
 378:.\Generated_Source\PSoC4/cyfitter_cfg.c **** 		CY_SET_XTND_REG32((void CYFAR *)(CYDEV_HSIOM_BASE), 0xEE000060u);
 417              		.loc 1 378 0
 418 00e6 1E4A     		ldr	r2, .L23+8
 419 00e8 1E4B     		ldr	r3, .L23+12
 420 00ea 1A60     		str	r2, [r3]
 379:.\Generated_Source\PSoC4/cyfitter_cfg.c **** 
 380:.\Generated_Source\PSoC4/cyfitter_cfg.c **** 		/* UDB_PA_0 Starting address: CYDEV_UDB_PA0_BASE */
 381:.\Generated_Source\PSoC4/cyfitter_cfg.c **** 		CY_SET_XTND_REG32((void CYFAR *)(CYDEV_UDB_PA0_BASE), 0x00990000u);
 421              		.loc 1 381 0
 422 00ec 9923     		mov	r3, #153
 423 00ee 1B04     		lsl	r3, r3, #16
 424 00f0 1D4A     		ldr	r2, .L23+16
 425 00f2 1360     		str	r3, [r2]
 382:.\Generated_Source\PSoC4/cyfitter_cfg.c **** 
 383:.\Generated_Source\PSoC4/cyfitter_cfg.c **** 		/* UDB_PA_1 Starting address: CYDEV_UDB_PA1_BASE */
 384:.\Generated_Source\PSoC4/cyfitter_cfg.c **** 		CY_SET_XTND_REG32((void CYFAR *)(CYDEV_UDB_PA1_BASE), 0x00990000u);
 426              		.loc 1 384 0
 427 00f4 1D4A     		ldr	r2, .L23+20
 428 00f6 1360     		str	r3, [r2]
 385:.\Generated_Source\PSoC4/cyfitter_cfg.c **** 
 386:.\Generated_Source\PSoC4/cyfitter_cfg.c **** 		/* UDB_PA_2 Starting address: CYDEV_UDB_PA2_BASE */
 387:.\Generated_Source\PSoC4/cyfitter_cfg.c **** 		CY_SET_XTND_REG32((void CYFAR *)(CYDEV_UDB_PA2_BASE), 0x00990000u);
 429              		.loc 1 387 0
 430 00f8 1D4A     		ldr	r2, .L23+24
 431 00fa 1360     		str	r3, [r2]
 388:.\Generated_Source\PSoC4/cyfitter_cfg.c **** 
 389:.\Generated_Source\PSoC4/cyfitter_cfg.c **** 		/* UDB_PA_3 Starting address: CYDEV_UDB_PA3_BASE */
 390:.\Generated_Source\PSoC4/cyfitter_cfg.c **** 		CY_SET_XTND_REG32((void CYFAR *)(CYDEV_UDB_PA3_BASE), 0x00990000u);
 432              		.loc 1 390 0
 433 00fc 1D4A     		ldr	r2, .L23+28
 434 00fe 1360     		str	r3, [r2]
 391:.\Generated_Source\PSoC4/cyfitter_cfg.c **** 
 392:.\Generated_Source\PSoC4/cyfitter_cfg.c **** 		/* Enable digital routing */
 393:.\Generated_Source\PSoC4/cyfitter_cfg.c **** 		CY_SET_XTND_REG8((void *)CYREG_UDB_UDBIF_BANK_CTL, CY_GET_XTND_REG8((void *)CYREG_UDB_UDBIF_BANK_
 435              		.loc 1 393 0
 436 0100 1D4B     		ldr	r3, .L23+32
 437 0102 1878     		ldrb	r0, [r3]
 438 0104 0222     		mov	r2, #2
 439 0106 0221     		mov	r1, #2
 440 0108 0143     		orr	r1, r0
 441 010a 1970     		strb	r1, [r3]
 394:.\Generated_Source\PSoC4/cyfitter_cfg.c **** 
 395:.\Generated_Source\PSoC4/cyfitter_cfg.c **** 		/* Enable UDB array */
ARM GAS  C:\Users\Raulmo\AppData\Local\Temp\cckyDxud.s 			page 16


 396:.\Generated_Source\PSoC4/cyfitter_cfg.c **** 		CY_SET_XTND_REG8((void *)CYREG_UDB_UDBIF_WAIT_CFG, (uint8)((CY_GET_XTND_REG8((void *)CYREG_UDB_UD
 442              		.loc 1 396 0
 443 010c 1B49     		ldr	r1, .L23+36
 444 010e 0878     		ldrb	r0, [r1]
 445 0110 3C24     		mov	r4, #60
 446              	.LVL39:
 447 0112 A043     		bic	r0, r4
 448 0114 1424     		mov	r4, #20
 449 0116 2043     		orr	r0, r4
 450 0118 0870     		strb	r0, [r1]
 397:.\Generated_Source\PSoC4/cyfitter_cfg.c **** 		CY_SET_XTND_REG8((void *)CYREG_UDB_UDBIF_BANK_CTL, (uint8)(CY_GET_XTND_REG8((void *)CYREG_UDB_UDB
 451              		.loc 1 397 0
 452 011a 1878     		ldrb	r0, [r3]
 453 011c 1621     		mov	r1, #22
 454 011e 0143     		orr	r1, r0
 455 0120 1970     		strb	r1, [r3]
 456              	.LBE4:
 398:.\Generated_Source\PSoC4/cyfitter_cfg.c **** 	}
 399:.\Generated_Source\PSoC4/cyfitter_cfg.c **** 
 400:.\Generated_Source\PSoC4/cyfitter_cfg.c **** 	/* Perform second pass device configuration. These items must be configured in specific order afte
 401:.\Generated_Source\PSoC4/cyfitter_cfg.c **** 	/* IOPINS0_0 Starting address: CYDEV_GPIO_PRT0_DR */
 402:.\Generated_Source\PSoC4/cyfitter_cfg.c **** 	CY_SET_XTND_REG32((void CYFAR *)(CYREG_GPIO_PRT0_DR), 0x00000002u);
 457              		.loc 1 402 0
 458 0122 174B     		ldr	r3, .L23+40
 459 0124 1A60     		str	r2, [r3]
 403:.\Generated_Source\PSoC4/cyfitter_cfg.c **** 	CY_SET_XTND_REG32((void CYFAR *)(CYREG_GPIO_PRT0_PC), 0x00D80000u);
 460              		.loc 1 403 0
 461 0126 D823     		mov	r3, #216
 462 0128 1B04     		lsl	r3, r3, #16
 463 012a 1649     		ldr	r1, .L23+44
 464 012c 0B60     		str	r3, [r1]
 404:.\Generated_Source\PSoC4/cyfitter_cfg.c **** 	CY_SET_XTND_REG32((void CYFAR *)(CYREG_GPIO_PRT0_PC2), 0x00000002u);
 465              		.loc 1 404 0
 466 012e 1649     		ldr	r1, .L23+48
 467 0130 0A60     		str	r2, [r1]
 405:.\Generated_Source\PSoC4/cyfitter_cfg.c **** 
 406:.\Generated_Source\PSoC4/cyfitter_cfg.c **** 	/* IOPINS0_1 Starting address: CYDEV_GPIO_PRT1_DR */
 407:.\Generated_Source\PSoC4/cyfitter_cfg.c **** 	CY_SET_XTND_REG32((void CYFAR *)(CYREG_GPIO_PRT1_PC), 0x00000DB6u);
 468              		.loc 1 407 0
 469 0132 1649     		ldr	r1, .L23+52
 470 0134 164A     		ldr	r2, .L23+56
 471 0136 1160     		str	r1, [r2]
 408:.\Generated_Source\PSoC4/cyfitter_cfg.c **** 
 409:.\Generated_Source\PSoC4/cyfitter_cfg.c **** 	/* IOPINS0_2 Starting address: CYDEV_GPIO_PRT2_DR */
 410:.\Generated_Source\PSoC4/cyfitter_cfg.c **** 	CY_SET_XTND_REG32((void CYFAR *)(CYREG_GPIO_PRT2_DR), 0x00000040u);
 472              		.loc 1 410 0
 473 0138 4022     		mov	r2, #64
 474 013a 1649     		ldr	r1, .L23+60
 475 013c 0A60     		str	r2, [r1]
 411:.\Generated_Source\PSoC4/cyfitter_cfg.c **** 	CY_SET_XTND_REG32((void CYFAR *)(CYREG_GPIO_PRT2_PC), 0x00180000u);
 476              		.loc 1 411 0
 477 013e C020     		mov	r0, #192
 478 0140 4003     		lsl	r0, r0, #13
 479 0142 1549     		ldr	r1, .L23+64
 480 0144 0860     		str	r0, [r1]
 412:.\Generated_Source\PSoC4/cyfitter_cfg.c **** 
 413:.\Generated_Source\PSoC4/cyfitter_cfg.c **** 	/* IOPINS0_3 Starting address: CYDEV_GPIO_PRT3_DR */
ARM GAS  C:\Users\Raulmo\AppData\Local\Temp\cckyDxud.s 			page 17


 414:.\Generated_Source\PSoC4/cyfitter_cfg.c **** 	CY_SET_XTND_REG32((void CYFAR *)(CYREG_GPIO_PRT3_DR), 0x00000040u);
 481              		.loc 1 414 0
 482 0146 1549     		ldr	r1, .L23+68
 483 0148 0A60     		str	r2, [r1]
 415:.\Generated_Source\PSoC4/cyfitter_cfg.c **** 	CY_SET_XTND_REG32((void CYFAR *)(CYREG_GPIO_PRT3_PC), 0x00D80000u);
 484              		.loc 1 415 0
 485 014a 154A     		ldr	r2, .L23+72
 486 014c 1360     		str	r3, [r2]
 416:.\Generated_Source\PSoC4/cyfitter_cfg.c **** 
 417:.\Generated_Source\PSoC4/cyfitter_cfg.c **** 	/* Setup clocks based on selections from Clock DWR */
 418:.\Generated_Source\PSoC4/cyfitter_cfg.c **** 	ClockSetup();
 487              		.loc 1 418 0
 488 014e FFF757FF 		bl	ClockSetup
 489              	.LVL40:
 419:.\Generated_Source\PSoC4/cyfitter_cfg.c **** 
 420:.\Generated_Source\PSoC4/cyfitter_cfg.c **** 	/* Perform basic analog initialization to defaults */
 421:.\Generated_Source\PSoC4/cyfitter_cfg.c **** 	AnalogSetDefault();
 490              		.loc 1 421 0
 491 0152 FFF7FEFF 		bl	AnalogSetDefault
 492              	.LVL41:
 422:.\Generated_Source\PSoC4/cyfitter_cfg.c **** 
 423:.\Generated_Source\PSoC4/cyfitter_cfg.c **** }
 493              		.loc 1 423 0
 494              		@ sp needed
 495 0156 38BD     		pop	{r3, r4, r5, pc}
 496              	.L24:
 497              		.align	2
 498              	.L23:
 499 0158 6CF02E40 		.word	1076818028
 500 015c 00000000 		.word	.LANCHOR0
 501 0160 600000EE 		.word	-301989792
 502 0164 00000240 		.word	1073872896
 503 0168 00500F40 		.word	1074745344
 504 016c 10500F40 		.word	1074745360
 505 0170 20500F40 		.word	1074745376
 506 0174 30500F40 		.word	1074745392
 507 0178 00700F40 		.word	1074753536
 508 017c 01700F40 		.word	1074753537
 509 0180 00000440 		.word	1074003968
 510 0184 08000440 		.word	1074003976
 511 0188 18000440 		.word	1074003992
 512 018c B60D0000 		.word	3510
 513 0190 08010440 		.word	1074004232
 514 0194 00020440 		.word	1074004480
 515 0198 08020440 		.word	1074004488
 516 019c 00030440 		.word	1074004736
 517 01a0 08030440 		.word	1074004744
 518              		.cfi_endproc
 519              	.LFE9:
 520              		.size	cyfitter_cfg, .-cyfitter_cfg
 521              		.section	.rodata
 522              		.align	2
 523              		.set	.LANCHOR0,. + 0
 524              		.type	cfg_memset_list.4774, %object
 525              		.size	cfg_memset_list.4774, 12
 526              	cfg_memset_list.4774:
 527 0000 00300F40 		.word	1074737152
ARM GAS  C:\Users\Raulmo\AppData\Local\Temp\cckyDxud.s 			page 18


 528 0004 0004     		.short	1024
 529 0006 00400F40 		.4byte	1074741248
 530 000a 0004     		.short	1024
 531              		.type	cy_cfg_addr_table.4768, %object
 532              		.size	cy_cfg_addr_table.4768, 20
 533              	cy_cfg_addr_table.4768:
 534 000c 04300F40 		.word	1074737156
 535 0010 02310F40 		.word	1074737410
 536 0014 02330F40 		.word	1074737922
 537 0018 02400F40 		.word	1074741250
 538 001c 07410F40 		.word	1074741511
 539              		.type	cy_cfg_data_table.4769, %object
 540              		.size	cy_cfg_data_table.4769, 34
 541              	cy_cfg_data_table.4769:
 542 0020 38       		.byte	56
 543 0021 28       		.byte	40
 544 0022 3E       		.byte	62
 545 0023 14       		.byte	20
 546 0024 58       		.byte	88
 547 0025 04       		.byte	4
 548 0026 5F       		.byte	95
 549 0027 01       		.byte	1
 550 0028 1A       		.byte	26
 551 0029 04       		.byte	4
 552 002a 1B       		.byte	27
 553 002b 04       		.byte	4
 554 002c AB       		.byte	-85
 555 002d 04       		.byte	4
 556 002e AE       		.byte	-82
 557 002f 04       		.byte	4
 558 0030 53       		.byte	83
 559 0031 20       		.byte	32
 560 0032 D4       		.byte	-44
 561 0033 20       		.byte	32
 562 0034 3B       		.byte	59
 563 0035 04       		.byte	4
 564 0036 93       		.byte	-109
 565 0037 04       		.byte	4
 566 0038 AB       		.byte	-85
 567 0039 20       		.byte	32
 568 003a AF       		.byte	-81
 569 003b 04       		.byte	4
 570 003c CE       		.byte	-50
 571 003d 40       		.byte	64
 572 003e EA       		.byte	-22
 573 003f 40       		.byte	64
 574 0040 EE       		.byte	-18
 575 0041 20       		.byte	32
 576 0042 0000     		.text
 577              	.Letext0:
 578              		.file 2 "c:\\program files (x86)\\cypress\\psoc creator\\3.2\\psoc creator\\import\\gnu\\arm\\4.8.
 579              		.file 3 ".\\Generated_Source\\PSoC4\\cytypes.h"
 580              		.file 4 ".\\Generated_Source\\PSoC4\\CyLib.h"
 581              		.file 5 ".\\Generated_Source\\PSoC4\\CyLFClk.h"