ARM GAS  C:\Users\Raulmo\AppData\Local\Temp\cchOFObc.s 			page 1


   1              		.cpu cortex-m0
   2              		.fpu softvfp
   3              		.eabi_attribute 20, 1
   4              		.eabi_attribute 21, 1
   5              		.eabi_attribute 23, 3
   6              		.eabi_attribute 24, 1
   7              		.eabi_attribute 25, 1
   8              		.eabi_attribute 26, 1
   9              		.eabi_attribute 30, 1
  10              		.eabi_attribute 34, 0
  11              		.eabi_attribute 18, 4
  12              		.code	16
  13              		.file	"IDAC.c"
  14              		.text
  15              	.Ltext0:
  16              		.cfi_sections	.debug_frame
  17              		.section	.text.IDAC_Init,"ax",%progbits
  18              		.align	2
  19              		.global	IDAC_Init
  20              		.code	16
  21              		.thumb_func
  22              		.type	IDAC_Init, %function
  23              	IDAC_Init:
  24              	.LFB2:
  25              		.file 1 ".\\Generated_Source\\PSoC4\\IDAC.c"
   1:.\Generated_Source\PSoC4/IDAC.c **** /*******************************************************************************
   2:.\Generated_Source\PSoC4/IDAC.c **** * File Name: IDAC.c
   3:.\Generated_Source\PSoC4/IDAC.c **** * Version 1.10
   4:.\Generated_Source\PSoC4/IDAC.c **** *
   5:.\Generated_Source\PSoC4/IDAC.c **** * Description:
   6:.\Generated_Source\PSoC4/IDAC.c **** *  This file provides the source code of APIs for the IDAC_P4 component.
   7:.\Generated_Source\PSoC4/IDAC.c **** *
   8:.\Generated_Source\PSoC4/IDAC.c **** *******************************************************************************
   9:.\Generated_Source\PSoC4/IDAC.c **** * Copyright 2013-2015, Cypress Semiconductor Corporation.  All rights reserved.
  10:.\Generated_Source\PSoC4/IDAC.c **** * You may use this file only in accordance with the license, terms, conditions,
  11:.\Generated_Source\PSoC4/IDAC.c **** * disclaimers, and limitations in the end user license agreement accompanying
  12:.\Generated_Source\PSoC4/IDAC.c **** * the software package with which this file was provided.
  13:.\Generated_Source\PSoC4/IDAC.c **** *******************************************************************************/
  14:.\Generated_Source\PSoC4/IDAC.c **** 
  15:.\Generated_Source\PSoC4/IDAC.c **** #include "IDAC.h"
  16:.\Generated_Source\PSoC4/IDAC.c **** 
  17:.\Generated_Source\PSoC4/IDAC.c **** uint32 IDAC_initVar = 0u;
  18:.\Generated_Source\PSoC4/IDAC.c **** 
  19:.\Generated_Source\PSoC4/IDAC.c **** 
  20:.\Generated_Source\PSoC4/IDAC.c **** /*******************************************************************************
  21:.\Generated_Source\PSoC4/IDAC.c **** * Function Name: IDAC_Init
  22:.\Generated_Source\PSoC4/IDAC.c **** ********************************************************************************
  23:.\Generated_Source\PSoC4/IDAC.c **** *
  24:.\Generated_Source\PSoC4/IDAC.c **** * Summary:
  25:.\Generated_Source\PSoC4/IDAC.c **** *  Initializes IDAC registers with initial values provided from customizer.
  26:.\Generated_Source\PSoC4/IDAC.c **** *
  27:.\Generated_Source\PSoC4/IDAC.c **** * Parameters:
  28:.\Generated_Source\PSoC4/IDAC.c **** *  None
  29:.\Generated_Source\PSoC4/IDAC.c **** *
  30:.\Generated_Source\PSoC4/IDAC.c **** * Return:
  31:.\Generated_Source\PSoC4/IDAC.c **** *  None
  32:.\Generated_Source\PSoC4/IDAC.c **** *
ARM GAS  C:\Users\Raulmo\AppData\Local\Temp\cchOFObc.s 			page 2


  33:.\Generated_Source\PSoC4/IDAC.c **** * Global variables:
  34:.\Generated_Source\PSoC4/IDAC.c **** *  None
  35:.\Generated_Source\PSoC4/IDAC.c **** *
  36:.\Generated_Source\PSoC4/IDAC.c **** *******************************************************************************/
  37:.\Generated_Source\PSoC4/IDAC.c **** void IDAC_Init(void)
  38:.\Generated_Source\PSoC4/IDAC.c **** {
  26              		.loc 1 38 0
  27              		.cfi_startproc
  28 0000 10B5     		push	{r4, lr}
  29              		.cfi_def_cfa_offset 8
  30              		.cfi_offset 4, -8
  31              		.cfi_offset 14, -4
  39:.\Generated_Source\PSoC4/IDAC.c ****     uint32 regVal;
  40:.\Generated_Source\PSoC4/IDAC.c ****     uint8 enableInterrupts;
  41:.\Generated_Source\PSoC4/IDAC.c **** 
  42:.\Generated_Source\PSoC4/IDAC.c ****     /* Set initial configuration */
  43:.\Generated_Source\PSoC4/IDAC.c ****     enableInterrupts = CyEnterCriticalSection();
  32              		.loc 1 43 0
  33 0002 FFF7FEFF 		bl	CyEnterCriticalSection
  34              	.LVL0:
  44:.\Generated_Source\PSoC4/IDAC.c ****     
  45:.\Generated_Source\PSoC4/IDAC.c ****     #if(IDAC_MODE_SOURCE == IDAC_IDAC_POLARITY)
  46:.\Generated_Source\PSoC4/IDAC.c ****         regVal  = IDAC_CSD_TRIM1_REG & ~(IDAC_CSD_IDAC_TRIM1_MASK);
  35              		.loc 1 46 0
  36 0006 0E4B     		ldr	r3, .L2
  37 0008 1968     		ldr	r1, [r3]
  38 000a 0F22     		mov	r2, #15
  39 000c 9143     		bic	r1, r2
  40              	.LVL1:
  47:.\Generated_Source\PSoC4/IDAC.c ****         regVal |=  (IDAC_SFLASH_TRIM1_REG & IDAC_CSD_IDAC_TRIM1_MASK);
  41              		.loc 1 47 0
  42 000e 0D4A     		ldr	r2, .L2+4
  43 0010 1478     		ldrb	r4, [r2]
  44 0012 0F22     		mov	r2, #15
  45 0014 2240     		and	r2, r4
  46 0016 0A43     		orr	r2, r1
  47              	.LVL2:
  48:.\Generated_Source\PSoC4/IDAC.c ****         IDAC_CSD_TRIM1_REG = regVal;
  48              		.loc 1 48 0
  49 0018 1A60     		str	r2, [r3]
  49:.\Generated_Source\PSoC4/IDAC.c ****     #else
  50:.\Generated_Source\PSoC4/IDAC.c ****         regVal  = IDAC_CSD_TRIM2_REG & ~(IDAC_CSD_IDAC_TRIM2_MASK);
  51:.\Generated_Source\PSoC4/IDAC.c ****         regVal |=  (IDAC_SFLASH_TRIM2_REG & IDAC_CSD_IDAC_TRIM2_MASK);
  52:.\Generated_Source\PSoC4/IDAC.c ****         IDAC_CSD_TRIM2_REG = regVal;
  53:.\Generated_Source\PSoC4/IDAC.c ****     #endif /* (IDAC_MODE_SOURCE == IDAC_IDAC_POLARITY) */
  54:.\Generated_Source\PSoC4/IDAC.c **** 
  55:.\Generated_Source\PSoC4/IDAC.c ****     /* clear previous values */
  56:.\Generated_Source\PSoC4/IDAC.c ****     IDAC_IDAC_CONTROL_REG &= ((uint32)~((uint32)IDAC_IDAC_VALUE_MASK <<
  50              		.loc 1 56 0
  51 001a 0B4A     		ldr	r2, .L2+8
  52              	.LVL3:
  53 001c 1368     		ldr	r3, [r2]
  54              	.LVL4:
  55 001e 1360     		str	r3, [r2]
  56              	.LVL5:
  57:.\Generated_Source\PSoC4/IDAC.c ****         IDAC_IDAC_VALUE_POSITION)) | ((uint32)~((uint32)IDAC_IDAC_MODE_MASK <<
  58:.\Generated_Source\PSoC4/IDAC.c ****         IDAC_IDAC_MODE_POSITION))  | ((uint32)~((uint32)IDAC_IDAC_RANGE_MASK  <<
ARM GAS  C:\Users\Raulmo\AppData\Local\Temp\cchOFObc.s 			page 3


  59:.\Generated_Source\PSoC4/IDAC.c ****         IDAC_IDAC_RANGE_POSITION));
  60:.\Generated_Source\PSoC4/IDAC.c **** 
  61:.\Generated_Source\PSoC4/IDAC.c ****     IDAC_IDAC_POLARITY_CONTROL_REG &= (~(uint32)((uint32)IDAC_IDAC_POLARITY_MASK <<
  57              		.loc 1 61 0
  58 0020 0A4B     		ldr	r3, .L2+12
  59 0022 1C68     		ldr	r4, [r3]
  60              	.LVL6:
  61 0024 0A49     		ldr	r1, .L2+16
  62 0026 2140     		and	r1, r4
  63 0028 1960     		str	r1, [r3]
  62:.\Generated_Source\PSoC4/IDAC.c ****         IDAC_IDAC_POLARITY_POSITION));
  63:.\Generated_Source\PSoC4/IDAC.c **** 
  64:.\Generated_Source\PSoC4/IDAC.c ****     /* set new configuration */
  65:.\Generated_Source\PSoC4/IDAC.c ****     IDAC_IDAC_CONTROL_REG |= (((uint32)IDAC_IDAC_INIT_VALUE <<
  64              		.loc 1 65 0
  65 002a 1468     		ldr	r4, [r2]
  66 002c 8F21     		mov	r1, #143
  67 002e C900     		lsl	r1, r1, #3
  68 0030 2143     		orr	r1, r4
  69 0032 1160     		str	r1, [r2]
  66:.\Generated_Source\PSoC4/IDAC.c ****         IDAC_IDAC_VALUE_POSITION) | ((uint32)IDAC_IDAC_RANGE <<
  67:.\Generated_Source\PSoC4/IDAC.c ****         IDAC_IDAC_RANGE_POSITION));
  68:.\Generated_Source\PSoC4/IDAC.c **** 
  69:.\Generated_Source\PSoC4/IDAC.c ****     IDAC_IDAC_POLARITY_CONTROL_REG |= ((uint32)IDAC_IDAC_POLARITY <<
  70              		.loc 1 69 0
  71 0034 1A68     		ldr	r2, [r3]
  72 0036 1A60     		str	r2, [r3]
  70:.\Generated_Source\PSoC4/IDAC.c ****                                                            IDAC_IDAC_POLARITY_POSITION);
  71:.\Generated_Source\PSoC4/IDAC.c **** 
  72:.\Generated_Source\PSoC4/IDAC.c ****     CyExitCriticalSection(enableInterrupts);
  73              		.loc 1 72 0
  74 0038 FFF7FEFF 		bl	CyExitCriticalSection
  75              	.LVL7:
  73:.\Generated_Source\PSoC4/IDAC.c **** 
  74:.\Generated_Source\PSoC4/IDAC.c **** }
  76              		.loc 1 74 0
  77              		@ sp needed
  78 003c 10BD     		pop	{r4, pc}
  79              	.L3:
  80 003e C046     		.align	2
  81              	.L2:
  82 0040 00FF2840 		.word	1076428544
  83 0044 60F1FF0F 		.word	268431712
  84 0048 08002840 		.word	1076363272
  85 004c 04002840 		.word	1076363268
  86 0050 FFFFFEFF 		.word	-65537
  87              		.cfi_endproc
  88              	.LFE2:
  89              		.size	IDAC_Init, .-IDAC_Init
  90              		.section	.text.IDAC_Enable,"ax",%progbits
  91              		.align	2
  92              		.global	IDAC_Enable
  93              		.code	16
  94              		.thumb_func
  95              		.type	IDAC_Enable, %function
  96              	IDAC_Enable:
  97              	.LFB3:
ARM GAS  C:\Users\Raulmo\AppData\Local\Temp\cchOFObc.s 			page 4


  75:.\Generated_Source\PSoC4/IDAC.c **** 
  76:.\Generated_Source\PSoC4/IDAC.c **** 
  77:.\Generated_Source\PSoC4/IDAC.c **** /*******************************************************************************
  78:.\Generated_Source\PSoC4/IDAC.c **** * Function Name: IDAC_Enable
  79:.\Generated_Source\PSoC4/IDAC.c **** ********************************************************************************
  80:.\Generated_Source\PSoC4/IDAC.c **** *
  81:.\Generated_Source\PSoC4/IDAC.c **** * Summary:
  82:.\Generated_Source\PSoC4/IDAC.c **** *  Enables IDAC operations.
  83:.\Generated_Source\PSoC4/IDAC.c **** *
  84:.\Generated_Source\PSoC4/IDAC.c **** * Parameters:
  85:.\Generated_Source\PSoC4/IDAC.c **** *  None
  86:.\Generated_Source\PSoC4/IDAC.c **** *
  87:.\Generated_Source\PSoC4/IDAC.c **** * Return:
  88:.\Generated_Source\PSoC4/IDAC.c **** *  None
  89:.\Generated_Source\PSoC4/IDAC.c **** *
  90:.\Generated_Source\PSoC4/IDAC.c **** * Global variables:
  91:.\Generated_Source\PSoC4/IDAC.c **** *  None
  92:.\Generated_Source\PSoC4/IDAC.c **** *
  93:.\Generated_Source\PSoC4/IDAC.c **** *******************************************************************************/
  94:.\Generated_Source\PSoC4/IDAC.c **** void IDAC_Enable(void)
  95:.\Generated_Source\PSoC4/IDAC.c **** {
  98              		.loc 1 95 0
  99              		.cfi_startproc
 100 0000 08B5     		push	{r3, lr}
 101              		.cfi_def_cfa_offset 8
 102              		.cfi_offset 3, -8
 103              		.cfi_offset 14, -4
  96:.\Generated_Source\PSoC4/IDAC.c ****     uint8 enableInterrupts;
  97:.\Generated_Source\PSoC4/IDAC.c **** 
  98:.\Generated_Source\PSoC4/IDAC.c ****     enableInterrupts = CyEnterCriticalSection();
 104              		.loc 1 98 0
 105 0002 FFF7FEFF 		bl	CyEnterCriticalSection
 106              	.LVL8:
  99:.\Generated_Source\PSoC4/IDAC.c **** 
 100:.\Generated_Source\PSoC4/IDAC.c ****     /* Enable the IDAC */
 101:.\Generated_Source\PSoC4/IDAC.c ****     IDAC_IDAC_CONTROL_REG |= ((uint32)IDAC_IDAC_EN_MODE <<
 107              		.loc 1 101 0
 108 0006 074B     		ldr	r3, .L5
 109 0008 1968     		ldr	r1, [r3]
 110 000a C022     		mov	r2, #192
 111 000c 9200     		lsl	r2, r2, #2
 112 000e 0A43     		orr	r2, r1
 113 0010 1A60     		str	r2, [r3]
 102:.\Generated_Source\PSoC4/IDAC.c ****                                                   IDAC_IDAC_MODE_POSITION);
 103:.\Generated_Source\PSoC4/IDAC.c ****     IDAC_IDAC_POLARITY_CONTROL_REG |= ((uint32)IDAC_IDAC_CSD_EN <<
 114              		.loc 1 103 0
 115 0012 054B     		ldr	r3, .L5+4
 116 0014 1968     		ldr	r1, [r3]
 117 0016 8022     		mov	r2, #128
 118 0018 1206     		lsl	r2, r2, #24
 119 001a 0A43     		orr	r2, r1
 120 001c 1A60     		str	r2, [r3]
 104:.\Generated_Source\PSoC4/IDAC.c ****                                                            IDAC_IDAC_CSD_EN_POSITION);
 105:.\Generated_Source\PSoC4/IDAC.c ****     CyExitCriticalSection(enableInterrupts);
 121              		.loc 1 105 0
 122 001e FFF7FEFF 		bl	CyExitCriticalSection
 123              	.LVL9:
ARM GAS  C:\Users\Raulmo\AppData\Local\Temp\cchOFObc.s 			page 5


 106:.\Generated_Source\PSoC4/IDAC.c **** 
 107:.\Generated_Source\PSoC4/IDAC.c **** }
 124              		.loc 1 107 0
 125              		@ sp needed
 126 0022 08BD     		pop	{r3, pc}
 127              	.L6:
 128              		.align	2
 129              	.L5:
 130 0024 08002840 		.word	1076363272
 131 0028 04002840 		.word	1076363268
 132              		.cfi_endproc
 133              	.LFE3:
 134              		.size	IDAC_Enable, .-IDAC_Enable
 135              		.section	.text.IDAC_Start,"ax",%progbits
 136              		.align	2
 137              		.global	IDAC_Start
 138              		.code	16
 139              		.thumb_func
 140              		.type	IDAC_Start, %function
 141              	IDAC_Start:
 142              	.LFB4:
 108:.\Generated_Source\PSoC4/IDAC.c **** 
 109:.\Generated_Source\PSoC4/IDAC.c **** 
 110:.\Generated_Source\PSoC4/IDAC.c **** /*******************************************************************************
 111:.\Generated_Source\PSoC4/IDAC.c **** * Function Name: IDAC_Start
 112:.\Generated_Source\PSoC4/IDAC.c **** ********************************************************************************
 113:.\Generated_Source\PSoC4/IDAC.c **** *
 114:.\Generated_Source\PSoC4/IDAC.c **** * Summary:
 115:.\Generated_Source\PSoC4/IDAC.c **** *  Starts the IDAC hardware.
 116:.\Generated_Source\PSoC4/IDAC.c **** *
 117:.\Generated_Source\PSoC4/IDAC.c **** * Parameters:
 118:.\Generated_Source\PSoC4/IDAC.c **** *  None
 119:.\Generated_Source\PSoC4/IDAC.c **** *
 120:.\Generated_Source\PSoC4/IDAC.c **** * Return:
 121:.\Generated_Source\PSoC4/IDAC.c **** *  None
 122:.\Generated_Source\PSoC4/IDAC.c **** *
 123:.\Generated_Source\PSoC4/IDAC.c **** * Global variables:
 124:.\Generated_Source\PSoC4/IDAC.c **** *  IDAC_initVar
 125:.\Generated_Source\PSoC4/IDAC.c **** *
 126:.\Generated_Source\PSoC4/IDAC.c **** *******************************************************************************/
 127:.\Generated_Source\PSoC4/IDAC.c **** void IDAC_Start(void)
 128:.\Generated_Source\PSoC4/IDAC.c **** {
 143              		.loc 1 128 0
 144              		.cfi_startproc
 145 0000 08B5     		push	{r3, lr}
 146              		.cfi_def_cfa_offset 8
 147              		.cfi_offset 3, -8
 148              		.cfi_offset 14, -4
 129:.\Generated_Source\PSoC4/IDAC.c ****     if(0u == IDAC_initVar)
 149              		.loc 1 129 0
 150 0002 064B     		ldr	r3, .L9
 151 0004 1B68     		ldr	r3, [r3]
 152 0006 002B     		cmp	r3, #0
 153 0008 04D1     		bne	.L8
 130:.\Generated_Source\PSoC4/IDAC.c ****     {
 131:.\Generated_Source\PSoC4/IDAC.c ****         IDAC_Init();
 154              		.loc 1 131 0
ARM GAS  C:\Users\Raulmo\AppData\Local\Temp\cchOFObc.s 			page 6


 155 000a FFF7FEFF 		bl	IDAC_Init
 156              	.LVL10:
 132:.\Generated_Source\PSoC4/IDAC.c ****         IDAC_initVar = 1u;
 157              		.loc 1 132 0
 158 000e 0122     		mov	r2, #1
 159 0010 024B     		ldr	r3, .L9
 160 0012 1A60     		str	r2, [r3]
 161              	.L8:
 133:.\Generated_Source\PSoC4/IDAC.c ****     }
 134:.\Generated_Source\PSoC4/IDAC.c **** 
 135:.\Generated_Source\PSoC4/IDAC.c ****     IDAC_Enable();
 162              		.loc 1 135 0
 163 0014 FFF7FEFF 		bl	IDAC_Enable
 164              	.LVL11:
 136:.\Generated_Source\PSoC4/IDAC.c **** 
 137:.\Generated_Source\PSoC4/IDAC.c **** }
 165              		.loc 1 137 0
 166              		@ sp needed
 167 0018 08BD     		pop	{r3, pc}
 168              	.L10:
 169 001a C046     		.align	2
 170              	.L9:
 171 001c 00000000 		.word	.LANCHOR0
 172              		.cfi_endproc
 173              	.LFE4:
 174              		.size	IDAC_Start, .-IDAC_Start
 175              		.section	.text.IDAC_Stop,"ax",%progbits
 176              		.align	2
 177              		.global	IDAC_Stop
 178              		.code	16
 179              		.thumb_func
 180              		.type	IDAC_Stop, %function
 181              	IDAC_Stop:
 182              	.LFB5:
 138:.\Generated_Source\PSoC4/IDAC.c **** 
 139:.\Generated_Source\PSoC4/IDAC.c **** 
 140:.\Generated_Source\PSoC4/IDAC.c **** /*******************************************************************************
 141:.\Generated_Source\PSoC4/IDAC.c **** * Function Name: IDAC_Stop
 142:.\Generated_Source\PSoC4/IDAC.c **** ********************************************************************************
 143:.\Generated_Source\PSoC4/IDAC.c **** *
 144:.\Generated_Source\PSoC4/IDAC.c **** * Summary:
 145:.\Generated_Source\PSoC4/IDAC.c **** *  Stops the IDAC hardware.
 146:.\Generated_Source\PSoC4/IDAC.c **** *
 147:.\Generated_Source\PSoC4/IDAC.c **** * Parameters:
 148:.\Generated_Source\PSoC4/IDAC.c **** *  None
 149:.\Generated_Source\PSoC4/IDAC.c **** *
 150:.\Generated_Source\PSoC4/IDAC.c **** * Return:
 151:.\Generated_Source\PSoC4/IDAC.c **** *  None
 152:.\Generated_Source\PSoC4/IDAC.c **** *
 153:.\Generated_Source\PSoC4/IDAC.c **** * Global variables:
 154:.\Generated_Source\PSoC4/IDAC.c **** *  None
 155:.\Generated_Source\PSoC4/IDAC.c **** *
 156:.\Generated_Source\PSoC4/IDAC.c **** *******************************************************************************/
 157:.\Generated_Source\PSoC4/IDAC.c **** void IDAC_Stop(void)
 158:.\Generated_Source\PSoC4/IDAC.c **** {
 183              		.loc 1 158 0
 184              		.cfi_startproc
ARM GAS  C:\Users\Raulmo\AppData\Local\Temp\cchOFObc.s 			page 7


 185 0000 08B5     		push	{r3, lr}
 186              		.cfi_def_cfa_offset 8
 187              		.cfi_offset 3, -8
 188              		.cfi_offset 14, -4
 159:.\Generated_Source\PSoC4/IDAC.c ****     uint8 enableInterrupts;
 160:.\Generated_Source\PSoC4/IDAC.c **** 
 161:.\Generated_Source\PSoC4/IDAC.c ****     enableInterrupts = CyEnterCriticalSection();
 189              		.loc 1 161 0
 190 0002 FFF7FEFF 		bl	CyEnterCriticalSection
 191              	.LVL12:
 162:.\Generated_Source\PSoC4/IDAC.c **** 
 163:.\Generated_Source\PSoC4/IDAC.c ****     /* Disable the IDAC */
 164:.\Generated_Source\PSoC4/IDAC.c ****     IDAC_IDAC_CONTROL_REG &= ((uint32)~((uint32)IDAC_IDAC_MODE_MASK <<
 192              		.loc 1 164 0
 193 0006 044B     		ldr	r3, .L12
 194 0008 1968     		ldr	r1, [r3]
 195 000a 044A     		ldr	r2, .L12+4
 196 000c 0A40     		and	r2, r1
 197 000e 1A60     		str	r2, [r3]
 165:.\Generated_Source\PSoC4/IDAC.c ****         IDAC_IDAC_MODE_POSITION));
 166:.\Generated_Source\PSoC4/IDAC.c ****     CyExitCriticalSection(enableInterrupts);
 198              		.loc 1 166 0
 199 0010 FFF7FEFF 		bl	CyExitCriticalSection
 200              	.LVL13:
 167:.\Generated_Source\PSoC4/IDAC.c **** }
 201              		.loc 1 167 0
 202              		@ sp needed
 203 0014 08BD     		pop	{r3, pc}
 204              	.L13:
 205 0016 C046     		.align	2
 206              	.L12:
 207 0018 08002840 		.word	1076363272
 208 001c FFFCFFFF 		.word	-769
 209              		.cfi_endproc
 210              	.LFE5:
 211              		.size	IDAC_Stop, .-IDAC_Stop
 212              		.section	.text.IDAC_SetValue,"ax",%progbits
 213              		.align	2
 214              		.global	IDAC_SetValue
 215              		.code	16
 216              		.thumb_func
 217              		.type	IDAC_SetValue, %function
 218              	IDAC_SetValue:
 219              	.LFB6:
 168:.\Generated_Source\PSoC4/IDAC.c **** 
 169:.\Generated_Source\PSoC4/IDAC.c **** 
 170:.\Generated_Source\PSoC4/IDAC.c **** /*******************************************************************************
 171:.\Generated_Source\PSoC4/IDAC.c **** * Function Name: IDAC_SetValue
 172:.\Generated_Source\PSoC4/IDAC.c **** ********************************************************************************
 173:.\Generated_Source\PSoC4/IDAC.c **** *
 174:.\Generated_Source\PSoC4/IDAC.c **** * Summary:
 175:.\Generated_Source\PSoC4/IDAC.c **** *  Sets the IDAC value.
 176:.\Generated_Source\PSoC4/IDAC.c **** *
 177:.\Generated_Source\PSoC4/IDAC.c **** * Parameters:
 178:.\Generated_Source\PSoC4/IDAC.c **** *  uint32 value
 179:.\Generated_Source\PSoC4/IDAC.c **** *
 180:.\Generated_Source\PSoC4/IDAC.c **** * Return:
ARM GAS  C:\Users\Raulmo\AppData\Local\Temp\cchOFObc.s 			page 8


 181:.\Generated_Source\PSoC4/IDAC.c **** *  None
 182:.\Generated_Source\PSoC4/IDAC.c **** *
 183:.\Generated_Source\PSoC4/IDAC.c **** * Global variables:
 184:.\Generated_Source\PSoC4/IDAC.c **** *  None
 185:.\Generated_Source\PSoC4/IDAC.c **** *
 186:.\Generated_Source\PSoC4/IDAC.c **** *******************************************************************************/
 187:.\Generated_Source\PSoC4/IDAC.c **** void IDAC_SetValue(uint32 value)
 188:.\Generated_Source\PSoC4/IDAC.c **** {
 220              		.loc 1 188 0
 221              		.cfi_startproc
 222              	.LVL14:
 223 0000 10B5     		push	{r4, lr}
 224              		.cfi_def_cfa_offset 8
 225              		.cfi_offset 4, -8
 226              		.cfi_offset 14, -4
 227 0002 041C     		mov	r4, r0
 189:.\Generated_Source\PSoC4/IDAC.c ****     uint8 enableInterrupts;
 190:.\Generated_Source\PSoC4/IDAC.c ****     uint32 newRegisterValue;
 191:.\Generated_Source\PSoC4/IDAC.c **** 
 192:.\Generated_Source\PSoC4/IDAC.c ****     enableInterrupts = CyEnterCriticalSection();
 228              		.loc 1 192 0
 229 0004 FFF7FEFF 		bl	CyEnterCriticalSection
 230              	.LVL15:
 193:.\Generated_Source\PSoC4/IDAC.c **** 
 194:.\Generated_Source\PSoC4/IDAC.c ****     #if(IDAC_IDAC_VALUE_POSITION != 0u)
 195:.\Generated_Source\PSoC4/IDAC.c ****         newRegisterValue = ((IDAC_IDAC_CONTROL_REG & (~(uint32)((uint32)IDAC_IDAC_VALUE_MASK <<
 196:.\Generated_Source\PSoC4/IDAC.c ****         IDAC_IDAC_VALUE_POSITION))) | (value << IDAC_IDAC_VALUE_POSITION));
 197:.\Generated_Source\PSoC4/IDAC.c ****     #else
 198:.\Generated_Source\PSoC4/IDAC.c ****         newRegisterValue = ((IDAC_IDAC_CONTROL_REG & (~(uint32)IDAC_IDAC_VALUE_MASK)) | value);
 231              		.loc 1 198 0
 232 0008 044B     		ldr	r3, .L15
 233 000a 1A68     		ldr	r2, [r3]
 234 000c FF21     		mov	r1, #255
 235 000e 8A43     		bic	r2, r1
 236 0010 1443     		orr	r4, r2
 237              	.LVL16:
 199:.\Generated_Source\PSoC4/IDAC.c ****     #endif /* IDAC_IDAC_VALUE_POSITION != 0u */
 200:.\Generated_Source\PSoC4/IDAC.c **** 
 201:.\Generated_Source\PSoC4/IDAC.c ****     IDAC_IDAC_CONTROL_REG = newRegisterValue;
 238              		.loc 1 201 0
 239 0012 1C60     		str	r4, [r3]
 202:.\Generated_Source\PSoC4/IDAC.c **** 
 203:.\Generated_Source\PSoC4/IDAC.c ****     CyExitCriticalSection(enableInterrupts);
 240              		.loc 1 203 0
 241 0014 FFF7FEFF 		bl	CyExitCriticalSection
 242              	.LVL17:
 204:.\Generated_Source\PSoC4/IDAC.c **** }
 243              		.loc 1 204 0
 244              		@ sp needed
 245              	.LVL18:
 246 0018 10BD     		pop	{r4, pc}
 247              	.L16:
 248 001a C046     		.align	2
 249              	.L15:
 250 001c 08002840 		.word	1076363272
 251              		.cfi_endproc
 252              	.LFE6:
ARM GAS  C:\Users\Raulmo\AppData\Local\Temp\cchOFObc.s 			page 9


 253              		.size	IDAC_SetValue, .-IDAC_SetValue
 254              		.global	IDAC_initVar
 255              		.bss
 256              		.align	2
 257              		.set	.LANCHOR0,. + 0
 258              		.type	IDAC_initVar, %object
 259              		.size	IDAC_initVar, 4
 260              	IDAC_initVar:
 261 0000 00000000 		.space	4
 262              		.text
 263              	.Letext0:
 264              		.file 2 ".\\Generated_Source\\PSoC4\\cytypes.h"
 265              		.file 3 ".\\Generated_Source\\PSoC4\\CyLib.h"