ARM GAS  C:\Users\Raulmo\AppData\Local\Temp\cc9xfTDG.s 			page 1


   1              		.cpu cortex-m0
   2              		.fpu softvfp
   3              		.eabi_attribute 20, 1
   4              		.eabi_attribute 21, 1
   5              		.eabi_attribute 23, 3
   6              		.eabi_attribute 24, 1
   7              		.eabi_attribute 25, 1
   8              		.eabi_attribute 26, 1
   9              		.eabi_attribute 30, 1
  10              		.eabi_attribute 34, 0
  11              		.eabi_attribute 18, 4
  12              		.code	16
  13              		.file	"main.c"
  14              		.text
  15              	.Ltext0:
  16              		.cfi_sections	.debug_frame
  17              		.section	.text.StackEventHandler,"ax",%progbits
  18              		.align	2
  19              		.global	StackEventHandler
  20              		.code	16
  21              		.thumb_func
  22              		.type	StackEventHandler, %function
  23              	StackEventHandler:
  24              	.LFB38:
  25              		.file 1 ".\\main.c"
   1:.\main.c      **** /* ========================================
   2:.\main.c      ****  *
   3:.\main.c      ****  * Copyright YOUR COMPANY, THE YEAR
   4:.\main.c      ****  * All Rights Reserved
   5:.\main.c      ****  * UNPUBLISHED, LICENSED SOFTWARE.
   6:.\main.c      ****  *
   7:.\main.c      ****  * CONFIDENTIAL AND PROPRIETARY INFORMATION
   8:.\main.c      ****  * WHICH IS THE PROPERTY OF your company.
   9:.\main.c      ****  *
  10:.\main.c      ****  * ========================================
  11:.\main.c      **** */
  12:.\main.c      **** 
  13:.\main.c      **** #include <project.h>
  14:.\main.c      **** #include <stdio.h>
  15:.\main.c      **** 
  16:.\main.c      **** #define LED_OFF  (1u)
  17:.\main.c      **** #define LED_ON  (0u)
  18:.\main.c      **** 
  19:.\main.c      **** void StackEventHandler( uint32 eventCode, void *eventParam );
  20:.\main.c      **** uint8 IDACValue;
  21:.\main.c      **** uint8 MotorValue = 0;
  22:.\main.c      **** CYBLE_GATT_HANDLE_VALUE_PAIR_T		IDACHandle;
  23:.\main.c      **** 
  24:.\main.c      **** unsigned char motor_phases[8] = {0x8,0xC,0x4,0x6,0x2,0x3,0x1,0x9};
  25:.\main.c      **** 
  26:.\main.c      **** void
  27:.\main.c      **** motor_step(int dir)
  28:.\main.c      **** {
  29:.\main.c      ****     static int phase = 0;
  30:.\main.c      ****     
  31:.\main.c      ****     Pin_1_Write(motor_phases[phase]);
  32:.\main.c      ****     phase = phase + dir + 8;
ARM GAS  C:\Users\Raulmo\AppData\Local\Temp\cc9xfTDG.s 			page 2


  33:.\main.c      ****     phase = phase & 0x7;
  34:.\main.c      **** }
  35:.\main.c      **** 
  36:.\main.c      **** void LedVerify()
  37:.\main.c      **** {
  38:.\main.c      ****     /*if Disconnected TURN ON RED LED*/
  39:.\main.c      ****     if(CyBle_GetState()==CYBLE_STATE_DISCONNECTED)
  40:.\main.c      ****     {
  41:.\main.c      ****         Advertising_LED_Write(LED_OFF);
  42:.\main.c      ****         Disconnect_LED_Write(LED_ON);
  43:.\main.c      ****         Connect_LED_Write(LED_OFF);
  44:.\main.c      ****     }
  45:.\main.c      ****     /*if Advertising TURN ON BLUE LED*/
  46:.\main.c      ****     else if(CyBle_GetState()==CYBLE_STATE_ADVERTISING)
  47:.\main.c      ****     {
  48:.\main.c      ****         Advertising_LED_Write(LED_ON);
  49:.\main.c      ****         Disconnect_LED_Write(LED_OFF);
  50:.\main.c      ****         Connect_LED_Write(LED_OFF);
  51:.\main.c      ****     }
  52:.\main.c      ****     /*If Connected TURN ON GREEN LED*/
  53:.\main.c      ****     else if(CyBle_GetState()==CYBLE_STATE_CONNECTED)
  54:.\main.c      ****     {
  55:.\main.c      ****         Advertising_LED_Write(LED_OFF);
  56:.\main.c      ****         Disconnect_LED_Write(LED_OFF);
  57:.\main.c      ****         Connect_LED_Write(LED_OFF);
  58:.\main.c      ****     }
  59:.\main.c      **** }
  60:.\main.c      **** 
  61:.\main.c      **** 
  62:.\main.c      **** int main()
  63:.\main.c      **** {
  64:.\main.c      ****     CyGlobalIntEnable;   /* Enable global interrupts */
  65:.\main.c      ****     
  66:.\main.c      ****     /* Place your initialization/startup code here (e.g. MyInst_Start()) */
  67:.\main.c      ****     IDAC_Start();
  68:.\main.c      ****     CyBle_Start( StackEventHandler );
  69:.\main.c      ****     
  70:.\main.c      ****     for(;;)
  71:.\main.c      ****     {
  72:.\main.c      ****         LedVerify();
  73:.\main.c      ****         switch(IDACValue)
  74:.\main.c      ****         {
  75:.\main.c      ****             case 0:
  76:.\main.c      ****              Disconnect_LED_Write(LED_ON);
  77:.\main.c      ****             break;
  78:.\main.c      ****             case 1:
  79:.\main.c      ****             Advertising_LED_Write(LED_ON);
  80:.\main.c      ****             break;
  81:.\main.c      ****             case 200:
  82:.\main.c      ****              Connect_LED_Write(LED_ON);
  83:.\main.c      ****             break;
  84:.\main.c      ****         }
  85:.\main.c      ****         
  86:.\main.c      ****         if(MotorValue == 1){
  87:.\main.c      ****         int i;
  88:.\main.c      ****         
  89:.\main.c      ****         for (i = 0; i < 10000; ++i)
ARM GAS  C:\Users\Raulmo\AppData\Local\Temp\cc9xfTDG.s 			page 3


  90:.\main.c      ****         {
  91:.\main.c      ****             motor_step(1);
  92:.\main.c      ****             CyDelay(1);
  93:.\main.c      ****         }
  94:.\main.c      ****         
  95:.\main.c      ****         MotorValue = 0;
  96:.\main.c      ****         Pin_1_Write(0x0);
  97:.\main.c      ****         }
  98:.\main.c      ****         
  99:.\main.c      ****          if(MotorValue == 2){
 100:.\main.c      ****         int i;
 101:.\main.c      ****         
 102:.\main.c      ****         for (i = 0; i < 10000; ++i)
 103:.\main.c      ****         {
 104:.\main.c      ****             motor_step(-1);
 105:.\main.c      ****             CyDelay(1);
 106:.\main.c      ****         }
 107:.\main.c      ****         
 108:.\main.c      ****         MotorValue = 0;
 109:.\main.c      ****         Pin_1_Write(0x0);
 110:.\main.c      ****         }
 111:.\main.c      ****         /* Place your application code here */
 112:.\main.c      ****         CyBle_ProcessEvents();
 113:.\main.c      ****     }
 114:.\main.c      **** }
 115:.\main.c      **** 
 116:.\main.c      **** void StackEventHandler( uint32 eventCode, void *eventParam )
 117:.\main.c      **** {
  26              		.loc 1 117 0
  27              		.cfi_startproc
  28              	.LVL0:
  29 0000 38B5     		push	{r3, r4, r5, lr}
  30              		.cfi_def_cfa_offset 16
  31              		.cfi_offset 3, -16
  32              		.cfi_offset 4, -12
  33              		.cfi_offset 5, -8
  34              		.cfi_offset 14, -4
  35 0002 0C1C     		mov	r4, r1
 118:.\main.c      **** 
 119:.\main.c      ****     CYBLE_GATTS_WRITE_REQ_PARAM_T *wrReqParam;
 120:.\main.c      ****         
 121:.\main.c      ****     switch(eventCode)
  36              		.loc 1 121 0
  37 0004 2728     		cmp	r0, #39
  38 0006 11D0     		beq	.L3
  39 0008 04D8     		bhi	.L4
  40 000a 0128     		cmp	r0, #1
  41 000c 07D0     		beq	.L5
  42 000e 2628     		cmp	r0, #38
  43 0010 13D0     		beq	.L6
  44 0012 5AE0     		b	.L1
  45              	.L4:
  46 0014 2828     		cmp	r0, #40
  47 0016 02D0     		beq	.L5
  48 0018 4C28     		cmp	r0, #76
  49 001a 1ED0     		beq	.L7
  50 001c 55E0     		b	.L1
ARM GAS  C:\Users\Raulmo\AppData\Local\Temp\cc9xfTDG.s 			page 4


  51              	.L5:
 122:.\main.c      ****     {
 123:.\main.c      ****        
 124:.\main.c      ****  
 125:.\main.c      ****               case CYBLE_EVT_STACK_ON:
 126:.\main.c      ****         case CYBLE_EVT_GAP_DEVICE_DISCONNECTED:
 127:.\main.c      ****             /* Start BLE advertisement for 30 seconds and update link
 128:.\main.c      ****              * status on LEDs */
 129:.\main.c      ****             CyBle_GappStartAdvertisement(CYBLE_ADVERTISING_FAST);
  52              		.loc 1 129 0
  53 001e 0020     		mov	r0, #0
  54              	.LVL1:
  55 0020 FFF7FEFF 		bl	CyBle_GappStartAdvertisement
  56              	.LVL2:
 130:.\main.c      ****             Advertising_LED_Write(LED_OFF);
  57              		.loc 1 130 0
  58 0024 0120     		mov	r0, #1
  59 0026 FFF7FEFF 		bl	Advertising_LED_Write
  60              	.LVL3:
 131:.\main.c      ****             
 132:.\main.c      ****         break;
  61              		.loc 1 132 0
  62 002a 4EE0     		b	.L1
  63              	.LVL4:
  64              	.L3:
 133:.\main.c      **** 
 134:.\main.c      ****         case CYBLE_EVT_GAP_DEVICE_CONNECTED:
 135:.\main.c      ****             /* BLE link is established */
 136:.\main.c      ****             Advertising_LED_Write(LED_OFF);
  65              		.loc 1 136 0
  66 002c 0120     		mov	r0, #1
  67              	.LVL5:
  68 002e FFF7FEFF 		bl	Advertising_LED_Write
  69              	.LVL6:
 137:.\main.c      ****             Disconnect_LED_Write(LED_OFF);
  70              		.loc 1 137 0
  71 0032 0120     		mov	r0, #1
  72 0034 FFF7FEFF 		bl	Disconnect_LED_Write
  73              	.LVL7:
 138:.\main.c      ****         break;
  74              		.loc 1 138 0
  75 0038 47E0     		b	.L1
  76              	.LVL8:
  77              	.L6:
 139:.\main.c      **** 
 140:.\main.c      ****         case CYBLE_EVT_GAPP_ADVERTISEMENT_START_STOP:
 141:.\main.c      ****             if(CyBle_GetState() == CYBLE_STATE_DISCONNECTED)
  78              		.loc 1 141 0
  79 003a 244B     		ldr	r3, .L9
  80 003c 1B78     		ldrb	r3, [r3]
  81 003e 042B     		cmp	r3, #4
  82 0040 43D1     		bne	.L1
 142:.\main.c      ****             {
 143:.\main.c      ****                 /* Advertisement event timed out, go to low power
 144:.\main.c      ****                  * mode (Stop mode) and wait for device reset
 145:.\main.c      ****                  * event to wake up the device again */
 146:.\main.c      ****                 Advertising_LED_Write(LED_ON);
ARM GAS  C:\Users\Raulmo\AppData\Local\Temp\cc9xfTDG.s 			page 5


  83              		.loc 1 146 0
  84 0042 0020     		mov	r0, #0
  85              	.LVL9:
  86 0044 FFF7FEFF 		bl	Advertising_LED_Write
  87              	.LVL10:
 147:.\main.c      ****                 Disconnect_LED_Write(LED_OFF);
  88              		.loc 1 147 0
  89 0048 0120     		mov	r0, #1
  90 004a FFF7FEFF 		bl	Disconnect_LED_Write
  91              	.LVL11:
 148:.\main.c      ****                 CySysPmSetWakeupPolarity(CY_PM_STOP_WAKEUP_ACTIVE_HIGH);
  92              		.loc 1 148 0
  93 004e 0120     		mov	r0, #1
  94 0050 FFF7FEFF 		bl	CySysPmSetWakeupPolarity
  95              	.LVL12:
 149:.\main.c      ****                 CySysPmStop();
  96              		.loc 1 149 0
  97 0054 FFF7FEFF 		bl	CySysPmStop
  98              	.LVL13:
  99 0058 37E0     		b	.L1
 100              	.LVL14:
 101              	.L7:
 150:.\main.c      ****                
 151:.\main.c      ****                 /* Code execution will not reach here */
 152:.\main.c      ****             }
 153:.\main.c      ****         break;
 154:.\main.c      ****                 
 155:.\main.c      ****         case CYBLE_EVT_GATTS_WRITE_REQ: 							
 156:.\main.c      **** 
 157:.\main.c      ****             
 158:.\main.c      ****             wrReqParam = (CYBLE_GATTS_WRITE_REQ_PARAM_T *) eventParam;
 159:.\main.c      ****             
 160:.\main.c      ****                if(wrReqParam->handleValPair.attrHandle == cyBle_customs[CYBLE_IDAC_SERVICE_INDEX].c
 102              		.loc 1 160 0
 103 005a 8A89     		ldrh	r2, [r1, #12]
 104 005c 1C4B     		ldr	r3, .L9+4
 105 005e 5B88     		ldrh	r3, [r3, #2]
 106 0060 9A42     		cmp	r2, r3
 107 0062 17D1     		bne	.L8
 161:.\main.c      ****                 IDACValue = wrReqParam->handleValPair.value.val[0];
 108              		.loc 1 161 0
 109 0064 4B68     		ldr	r3, [r1, #4]
 110 0066 1878     		ldrb	r0, [r3]
 111              	.LVL15:
 112 0068 1A4D     		ldr	r5, .L9+8
 113 006a 2870     		strb	r0, [r5]
 162:.\main.c      ****                 
 163:.\main.c      ****                IDAC_SetValue(IDACValue);
 114              		.loc 1 163 0
 115 006c FFF7FEFF 		bl	IDAC_SetValue
 116              	.LVL16:
 164:.\main.c      ****                
 165:.\main.c      ****         	
 166:.\main.c      ****         	/* Update RGB control handle with new values */
 167:.\main.c      ****         	IDACHandle.attrHandle = CYBLE_IDAC_CHANGE_IDAC_CHAR_HANDLE;
 117              		.loc 1 167 0
 118 0070 1948     		ldr	r0, .L9+12
ARM GAS  C:\Users\Raulmo\AppData\Local\Temp\cc9xfTDG.s 			page 6


 119 0072 0E23     		mov	r3, #14
 120 0074 0381     		strh	r3, [r0, #8]
 168:.\main.c      ****         	IDACHandle.value.val = &IDACValue;
 121              		.loc 1 168 0
 122 0076 0560     		str	r5, [r0]
 169:.\main.c      ****         	IDACHandle.value.len = sizeof(uint8);
 123              		.loc 1 169 0
 124 0078 0123     		mov	r3, #1
 125 007a 8380     		strh	r3, [r0, #4]
 170:.\main.c      **** 
 171:.\main.c      ****         	
 172:.\main.c      ****         	/* Send updated RGB control handle as attribute for read by central device */
 173:.\main.c      ****         	CyBle_GattsWriteAttributeValue(&IDACHandle, 0, &cyBle_connHandle, 0); 
 126              		.loc 1 173 0
 127 007c 174D     		ldr	r5, .L9+16
 128 007e 0021     		mov	r1, #0
 129 0080 2A1C     		mov	r2, r5
 130 0082 0023     		mov	r3, #0
 131 0084 FFF7FEFF 		bl	CyBle_GattsWriteAttributeValue
 132              	.LVL17:
 174:.\main.c      ****             
 175:.\main.c      **** 
 176:.\main.c      **** 			CyBle_GattsWriteRsp(cyBle_connHandle);
 133              		.loc 1 176 0
 134 0088 2B78     		ldrb	r3, [r5]
 135 008a 6878     		ldrb	r0, [r5, #1]
 136 008c 0002     		lsl	r0, r0, #8
 137 008e 1843     		orr	r0, r3
 138 0090 FFF7FEFF 		bl	CyBle_GattsWriteRsp
 139              	.LVL18:
 140              	.L8:
 177:.\main.c      ****             
 178:.\main.c      ****             }
 179:.\main.c      ****             
 180:.\main.c      ****              if(wrReqParam->handleValPair.attrHandle == cyBle_customs[CYBLE_IDAC_SERVICE_INDEX].cus
 141              		.loc 1 180 0
 142 0094 A289     		ldrh	r2, [r4, #12]
 143 0096 0E4B     		ldr	r3, .L9+4
 144 0098 9B88     		ldrh	r3, [r3, #4]
 145 009a 9A42     		cmp	r2, r3
 146 009c 15D1     		bne	.L1
 181:.\main.c      ****                 MotorValue = wrReqParam->handleValPair.value.val[0];
 147              		.loc 1 181 0
 148 009e 6368     		ldr	r3, [r4, #4]
 149 00a0 1A78     		ldrb	r2, [r3]
 150 00a2 0F4B     		ldr	r3, .L9+20
 151 00a4 1A70     		strb	r2, [r3]
 182:.\main.c      ****                 
 183:.\main.c      ****               
 184:.\main.c      ****                
 185:.\main.c      ****         	
 186:.\main.c      ****         	
 187:.\main.c      ****         	IDACHandle.attrHandle = CYBLE_IDAC_START_MOTOR_CHAR_HANDLE;
 152              		.loc 1 187 0
 153 00a6 0C48     		ldr	r0, .L9+12
 154 00a8 1022     		mov	r2, #16
 155 00aa 0281     		strh	r2, [r0, #8]
ARM GAS  C:\Users\Raulmo\AppData\Local\Temp\cc9xfTDG.s 			page 7


 188:.\main.c      ****         	IDACHandle.value.val = &MotorValue;
 156              		.loc 1 188 0
 157 00ac 0360     		str	r3, [r0]
 189:.\main.c      ****         	IDACHandle.value.len = sizeof(uint8);
 158              		.loc 1 189 0
 159 00ae 0123     		mov	r3, #1
 160 00b0 8380     		strh	r3, [r0, #4]
 190:.\main.c      **** 
 191:.\main.c      ****         	
 192:.\main.c      ****         	
 193:.\main.c      ****         	CyBle_GattsWriteAttributeValue(&IDACHandle, 0, &cyBle_connHandle, 0); 
 161              		.loc 1 193 0
 162 00b2 0A4C     		ldr	r4, .L9+16
 163              	.LVL19:
 164 00b4 0021     		mov	r1, #0
 165 00b6 221C     		mov	r2, r4
 166 00b8 0023     		mov	r3, #0
 167 00ba FFF7FEFF 		bl	CyBle_GattsWriteAttributeValue
 168              	.LVL20:
 194:.\main.c      ****             
 195:.\main.c      **** 
 196:.\main.c      **** 			CyBle_GattsWriteRsp(cyBle_connHandle);
 169              		.loc 1 196 0
 170 00be 2378     		ldrb	r3, [r4]
 171 00c0 6078     		ldrb	r0, [r4, #1]
 172 00c2 0002     		lsl	r0, r0, #8
 173 00c4 1843     		orr	r0, r3
 174 00c6 FFF7FEFF 		bl	CyBle_GattsWriteRsp
 175              	.LVL21:
 176              	.L1:
 197:.\main.c      ****             
 198:.\main.c      ****             } 
 199:.\main.c      **** 			
 200:.\main.c      **** 			break;
 201:.\main.c      ****           
 202:.\main.c      ****         default:
 203:.\main.c      ****             break;
 204:.\main.c      ****         
 205:.\main.c      ****     }
 206:.\main.c      **** }
 177              		.loc 1 206 0
 178              		@ sp needed
 179 00ca 38BD     		pop	{r3, r4, r5, pc}
 180              	.L10:
 181              		.align	2
 182              	.L9:
 183 00cc 00000000 		.word	cyBle_state
 184 00d0 00000000 		.word	cyBle_customs
 185 00d4 00000000 		.word	IDACValue
 186 00d8 00000000 		.word	IDACHandle
 187 00dc 00000000 		.word	cyBle_connHandle
 188 00e0 00000000 		.word	.LANCHOR0
 189              		.cfi_endproc
 190              	.LFE38:
 191              		.size	StackEventHandler, .-StackEventHandler
 192              		.section	.text.motor_step,"ax",%progbits
 193              		.align	2
ARM GAS  C:\Users\Raulmo\AppData\Local\Temp\cc9xfTDG.s 			page 8


 194              		.global	motor_step
 195              		.code	16
 196              		.thumb_func
 197              		.type	motor_step, %function
 198              	motor_step:
 199              	.LFB35:
  28:.\main.c      **** {
 200              		.loc 1 28 0
 201              		.cfi_startproc
 202              	.LVL22:
 203 0000 38B5     		push	{r3, r4, r5, lr}
 204              		.cfi_def_cfa_offset 16
 205              		.cfi_offset 3, -16
 206              		.cfi_offset 4, -12
 207              		.cfi_offset 5, -8
 208              		.cfi_offset 14, -4
 209 0002 051C     		mov	r5, r0
  31:.\main.c      ****     Pin_1_Write(motor_phases[phase]);
 210              		.loc 1 31 0
 211 0004 054C     		ldr	r4, .L12
 212 0006 064B     		ldr	r3, .L12+4
 213 0008 6268     		ldr	r2, [r4, #4]
 214 000a 985C     		ldrb	r0, [r3, r2]
 215              	.LVL23:
 216 000c FFF7FEFF 		bl	Pin_1_Write
 217              	.LVL24:
  32:.\main.c      ****     phase = phase + dir + 8;
 218              		.loc 1 32 0
 219 0010 6368     		ldr	r3, [r4, #4]
 220 0012 ED18     		add	r5, r5, r3
 221              	.LVL25:
  33:.\main.c      ****     phase = phase & 0x7;
 222              		.loc 1 33 0
 223 0014 0723     		mov	r3, #7
 224 0016 1D40     		and	r5, r3
 225 0018 6560     		str	r5, [r4, #4]
  34:.\main.c      **** }
 226              		.loc 1 34 0
 227              		@ sp needed
 228 001a 38BD     		pop	{r3, r4, r5, pc}
 229              	.L13:
 230              		.align	2
 231              	.L12:
 232 001c 00000000 		.word	.LANCHOR0
 233 0020 00000000 		.word	.LANCHOR1
 234              		.cfi_endproc
 235              	.LFE35:
 236              		.size	motor_step, .-motor_step
 237              		.section	.text.LedVerify,"ax",%progbits
 238              		.align	2
 239              		.global	LedVerify
 240              		.code	16
 241              		.thumb_func
 242              		.type	LedVerify, %function
 243              	LedVerify:
 244              	.LFB36:
  37:.\main.c      **** {
ARM GAS  C:\Users\Raulmo\AppData\Local\Temp\cc9xfTDG.s 			page 9


 245              		.loc 1 37 0
 246              		.cfi_startproc
 247 0000 08B5     		push	{r3, lr}
 248              		.cfi_def_cfa_offset 8
 249              		.cfi_offset 3, -8
 250              		.cfi_offset 14, -4
  39:.\main.c      ****     if(CyBle_GetState()==CYBLE_STATE_DISCONNECTED)
 251              		.loc 1 39 0
 252 0002 134B     		ldr	r3, .L18
 253 0004 1B78     		ldrb	r3, [r3]
 254 0006 042B     		cmp	r3, #4
 255 0008 09D1     		bne	.L15
  41:.\main.c      ****         Advertising_LED_Write(LED_OFF);
 256              		.loc 1 41 0
 257 000a 0120     		mov	r0, #1
 258 000c FFF7FEFF 		bl	Advertising_LED_Write
 259              	.LVL26:
  42:.\main.c      ****         Disconnect_LED_Write(LED_ON);
 260              		.loc 1 42 0
 261 0010 0020     		mov	r0, #0
 262 0012 FFF7FEFF 		bl	Disconnect_LED_Write
 263              	.LVL27:
  43:.\main.c      ****         Connect_LED_Write(LED_OFF);
 264              		.loc 1 43 0
 265 0016 0120     		mov	r0, #1
 266 0018 FFF7FEFF 		bl	Connect_LED_Write
 267              	.LVL28:
 268 001c 16E0     		b	.L14
 269              	.L15:
  46:.\main.c      ****     else if(CyBle_GetState()==CYBLE_STATE_ADVERTISING)
 270              		.loc 1 46 0
 271 001e 032B     		cmp	r3, #3
 272 0020 09D1     		bne	.L17
  48:.\main.c      ****         Advertising_LED_Write(LED_ON);
 273              		.loc 1 48 0
 274 0022 0020     		mov	r0, #0
 275 0024 FFF7FEFF 		bl	Advertising_LED_Write
 276              	.LVL29:
  49:.\main.c      ****         Disconnect_LED_Write(LED_OFF);
 277              		.loc 1 49 0
 278 0028 0120     		mov	r0, #1
 279 002a FFF7FEFF 		bl	Disconnect_LED_Write
 280              	.LVL30:
  50:.\main.c      ****         Connect_LED_Write(LED_OFF);
 281              		.loc 1 50 0
 282 002e 0120     		mov	r0, #1
 283 0030 FFF7FEFF 		bl	Connect_LED_Write
 284              	.LVL31:
 285 0034 0AE0     		b	.L14
 286              	.L17:
  53:.\main.c      ****     else if(CyBle_GetState()==CYBLE_STATE_CONNECTED)
 287              		.loc 1 53 0
 288 0036 022B     		cmp	r3, #2
 289 0038 08D1     		bne	.L14
  55:.\main.c      ****         Advertising_LED_Write(LED_OFF);
 290              		.loc 1 55 0
 291 003a 0120     		mov	r0, #1
ARM GAS  C:\Users\Raulmo\AppData\Local\Temp\cc9xfTDG.s 			page 10


 292 003c FFF7FEFF 		bl	Advertising_LED_Write
 293              	.LVL32:
  56:.\main.c      ****         Disconnect_LED_Write(LED_OFF);
 294              		.loc 1 56 0
 295 0040 0120     		mov	r0, #1
 296 0042 FFF7FEFF 		bl	Disconnect_LED_Write
 297              	.LVL33:
  57:.\main.c      ****         Connect_LED_Write(LED_OFF);
 298              		.loc 1 57 0
 299 0046 0120     		mov	r0, #1
 300 0048 FFF7FEFF 		bl	Connect_LED_Write
 301              	.LVL34:
 302              	.L14:
  59:.\main.c      **** }
 303              		.loc 1 59 0
 304              		@ sp needed
 305 004c 08BD     		pop	{r3, pc}
 306              	.L19:
 307 004e C046     		.align	2
 308              	.L18:
 309 0050 00000000 		.word	cyBle_state
 310              		.cfi_endproc
 311              	.LFE36:
 312              		.size	LedVerify, .-LedVerify
 313              		.section	.text.main,"ax",%progbits
 314              		.align	2
 315              		.global	main
 316              		.code	16
 317              		.thumb_func
 318              		.type	main, %function
 319              	main:
 320              	.LFB37:
  63:.\main.c      **** {
 321              		.loc 1 63 0
 322              		.cfi_startproc
 323 0000 F8B5     		push	{r3, r4, r5, r6, r7, lr}
 324              		.cfi_def_cfa_offset 24
 325              		.cfi_offset 3, -24
 326              		.cfi_offset 4, -20
 327              		.cfi_offset 5, -16
 328              		.cfi_offset 6, -12
 329              		.cfi_offset 7, -8
 330              		.cfi_offset 14, -4
 331 0002 4F46     		mov	r7, r9
 332 0004 4646     		mov	r6, r8
 333 0006 C0B4     		push	{r6, r7}
 334              		.cfi_def_cfa_offset 32
 335              		.cfi_offset 8, -32
 336              		.cfi_offset 9, -28
  64:.\main.c      ****     CyGlobalIntEnable;   /* Enable global interrupts */
 337              		.loc 1 64 0
 338              	@ 64 ".\main.c" 1
 339 0008 62B6     		CPSIE   i
 340              	@ 0 "" 2
  67:.\main.c      ****     IDAC_Start();
 341              		.loc 1 67 0
 342              		.code	16
ARM GAS  C:\Users\Raulmo\AppData\Local\Temp\cc9xfTDG.s 			page 11


 343 000a FFF7FEFF 		bl	IDAC_Start
 344              	.LVL35:
  68:.\main.c      ****     CyBle_Start( StackEventHandler );
 345              		.loc 1 68 0
 346 000e 2848     		ldr	r0, .L34
 347 0010 FFF7FEFF 		bl	CyBle_Start
 348              	.LVL36:
  73:.\main.c      ****         switch(IDACValue)
 349              		.loc 1 73 0
 350 0014 274A     		ldr	r2, .L34+4
 351 0016 9046     		mov	r8, r2
  86:.\main.c      ****         if(MotorValue == 1){
 352              		.loc 1 86 0
 353 0018 274F     		ldr	r7, .L34+8
 354              	.LBB2:
  95:.\main.c      ****         MotorValue = 0;
 355              		.loc 1 95 0
 356 001a B946     		mov	r9, r7
 357              	.L31:
 358              	.LBE2:
  72:.\main.c      ****         LedVerify();
 359              		.loc 1 72 0
 360 001c FFF7FEFF 		bl	LedVerify
 361              	.LVL37:
  73:.\main.c      ****         switch(IDACValue)
 362              		.loc 1 73 0
 363 0020 4246     		mov	r2, r8
 364 0022 1378     		ldrb	r3, [r2]
 365 0024 012B     		cmp	r3, #1
 366 0026 09D0     		beq	.L22
 367 0028 002B     		cmp	r3, #0
 368 002a 03D0     		beq	.L23
 369 002c DBB2     		uxtb	r3, r3
 370 002e C82B     		cmp	r3, #200
 371 0030 08D0     		beq	.L24
 372 0032 0AE0     		b	.L21
 373              	.L23:
  76:.\main.c      ****              Disconnect_LED_Write(LED_ON);
 374              		.loc 1 76 0
 375 0034 0020     		mov	r0, #0
 376 0036 FFF7FEFF 		bl	Disconnect_LED_Write
 377              	.LVL38:
  77:.\main.c      ****             break;
 378              		.loc 1 77 0
 379 003a 06E0     		b	.L21
 380              	.L22:
  79:.\main.c      ****             Advertising_LED_Write(LED_ON);
 381              		.loc 1 79 0
 382 003c 0020     		mov	r0, #0
 383 003e FFF7FEFF 		bl	Advertising_LED_Write
 384              	.LVL39:
  80:.\main.c      ****             break;
 385              		.loc 1 80 0
 386 0042 02E0     		b	.L21
 387              	.L24:
  82:.\main.c      ****              Connect_LED_Write(LED_ON);
 388              		.loc 1 82 0
ARM GAS  C:\Users\Raulmo\AppData\Local\Temp\cc9xfTDG.s 			page 12


 389 0044 0020     		mov	r0, #0
 390 0046 FFF7FEFF 		bl	Connect_LED_Write
 391              	.LVL40:
 392              	.L21:
  86:.\main.c      ****         if(MotorValue == 1){
 393              		.loc 1 86 0
 394 004a 3B78     		ldrb	r3, [r7]
 395 004c 012B     		cmp	r3, #1
 396 004e 12D1     		bne	.L26
 397 0050 07E0     		b	.L32
 398              	.LVL41:
 399              	.L27:
 400              	.LBB3:
  91:.\main.c      ****             motor_step(1);
 401              		.loc 1 91 0 discriminator 2
 402 0052 0120     		mov	r0, #1
 403 0054 FFF7FEFF 		bl	motor_step
 404              	.LVL42:
  92:.\main.c      ****             CyDelay(1);
 405              		.loc 1 92 0 discriminator 2
 406 0058 0120     		mov	r0, #1
 407 005a FFF7FEFF 		bl	CyDelay
 408              	.LVL43:
  89:.\main.c      ****         for (i = 0; i < 10000; ++i)
 409              		.loc 1 89 0 discriminator 2
 410 005e 0134     		add	r4, r4, #1
 411              	.LVL44:
 412 0060 01E0     		b	.L25
 413              	.LVL45:
 414              	.L32:
 415              	.LBE3:
 416 0062 0024     		mov	r4, #0
 417              	.LBB4:
  89:.\main.c      ****         for (i = 0; i < 10000; ++i)
 418              		.loc 1 89 0 is_stmt 0
 419 0064 154D     		ldr	r5, .L34+12
 420              	.L25:
 421              	.LVL46:
  89:.\main.c      ****         for (i = 0; i < 10000; ++i)
 422              		.loc 1 89 0 discriminator 1
 423 0066 AC42     		cmp	r4, r5
 424 0068 F3DD     		ble	.L27
  95:.\main.c      ****         MotorValue = 0;
 425              		.loc 1 95 0 is_stmt 1
 426 006a 0023     		mov	r3, #0
 427 006c 4A46     		mov	r2, r9
 428 006e 1370     		strb	r3, [r2]
  96:.\main.c      ****         Pin_1_Write(0x0);
 429              		.loc 1 96 0
 430 0070 0020     		mov	r0, #0
 431 0072 FFF7FEFF 		bl	Pin_1_Write
 432              	.LVL47:
 433              	.L26:
 434              	.LBE4:
  99:.\main.c      ****          if(MotorValue == 2){
 435              		.loc 1 99 0
 436 0076 104B     		ldr	r3, .L34+8
ARM GAS  C:\Users\Raulmo\AppData\Local\Temp\cc9xfTDG.s 			page 13


 437 0078 1B78     		ldrb	r3, [r3]
 438 007a 022B     		cmp	r3, #2
 439 007c 14D1     		bne	.L29
 440 007e 07E0     		b	.L33
 441              	.LVL48:
 442              	.L30:
 443              	.LBB5:
 104:.\main.c      ****             motor_step(-1);
 444              		.loc 1 104 0 discriminator 2
 445 0080 301C     		mov	r0, r6
 446 0082 FFF7FEFF 		bl	motor_step
 447              	.LVL49:
 105:.\main.c      ****             CyDelay(1);
 448              		.loc 1 105 0 discriminator 2
 449 0086 0120     		mov	r0, #1
 450 0088 FFF7FEFF 		bl	CyDelay
 451              	.LVL50:
 102:.\main.c      ****         for (i = 0; i < 10000; ++i)
 452              		.loc 1 102 0 discriminator 2
 453 008c 0134     		add	r4, r4, #1
 454              	.LVL51:
 455 008e 03E0     		b	.L28
 456              	.LVL52:
 457              	.L33:
 458              	.LBE5:
 459 0090 0024     		mov	r4, #0
 460              	.LBB6:
 102:.\main.c      ****         for (i = 0; i < 10000; ++i)
 461              		.loc 1 102 0 is_stmt 0
 462 0092 0A4D     		ldr	r5, .L34+12
 104:.\main.c      ****             motor_step(-1);
 463              		.loc 1 104 0 is_stmt 1
 464 0094 0126     		mov	r6, #1
 465 0096 7642     		neg	r6, r6
 466              	.L28:
 467              	.LVL53:
 102:.\main.c      ****         for (i = 0; i < 10000; ++i)
 468              		.loc 1 102 0 discriminator 1
 469 0098 AC42     		cmp	r4, r5
 470 009a F1DD     		ble	.L30
 108:.\main.c      ****         MotorValue = 0;
 471              		.loc 1 108 0
 472 009c 0022     		mov	r2, #0
 473 009e 064B     		ldr	r3, .L34+8
 474 00a0 1A70     		strb	r2, [r3]
 109:.\main.c      ****         Pin_1_Write(0x0);
 475              		.loc 1 109 0
 476 00a2 0020     		mov	r0, #0
 477 00a4 FFF7FEFF 		bl	Pin_1_Write
 478              	.LVL54:
 479              	.L29:
 480              	.LBE6:
 112:.\main.c      ****         CyBle_ProcessEvents();
 481              		.loc 1 112 0
 482 00a8 FFF7FEFF 		bl	CyBle_ProcessEvents
 483              	.LVL55:
 113:.\main.c      ****     }
ARM GAS  C:\Users\Raulmo\AppData\Local\Temp\cc9xfTDG.s 			page 14


 484              		.loc 1 113 0
 485 00ac B6E7     		b	.L31
 486              	.L35:
 487 00ae C046     		.align	2
 488              	.L34:
 489 00b0 00000000 		.word	StackEventHandler
 490 00b4 00000000 		.word	IDACValue
 491 00b8 00000000 		.word	.LANCHOR0
 492 00bc 0F270000 		.word	9999
 493              		.cfi_endproc
 494              	.LFE37:
 495              		.size	main, .-main
 496              		.global	motor_phases
 497              		.comm	IDACHandle,12,4
 498              		.global	MotorValue
 499              		.comm	IDACValue,1,1
 500              		.data
 501              		.align	2
 502              		.set	.LANCHOR1,. + 0
 503              		.type	motor_phases, %object
 504              		.size	motor_phases, 8
 505              	motor_phases:
 506 0000 08       		.byte	8
 507 0001 0C       		.byte	12
 508 0002 04       		.byte	4
 509 0003 06       		.byte	6
 510 0004 02       		.byte	2
 511 0005 03       		.byte	3
 512 0006 01       		.byte	1
 513 0007 09       		.byte	9
 514              		.bss
 515              		.align	2
 516              		.set	.LANCHOR0,. + 0
 517              		.type	MotorValue, %object
 518              		.size	MotorValue, 1
 519              	MotorValue:
 520 0000 00       		.space	1
 521 0001 000000   		.space	3
 522              		.type	phase.7116, %object
 523              		.size	phase.7116, 4
 524              	phase.7116:
 525 0004 00000000 		.space	4
 526              		.text
 527              	.Letext0:
 528              		.file 2 "Generated_Source\\PSoC4/cytypes.h"
 529              		.file 3 "Generated_Source\\PSoC4/BLE_Stack.h"
 530              		.file 4 "Generated_Source\\PSoC4/BLE_StackGatt.h"
 531              		.file 5 "Generated_Source\\PSoC4/BLE_StackGattServer.h"
 532              		.file 6 "Generated_Source\\PSoC4/BLE.h"
 533              		.file 7 "Generated_Source\\PSoC4/BLE_custom.h"
 534              		.file 8 "Generated_Source\\PSoC4/BLE_eventHandler.h"
 535              		.file 9 "Generated_Source\\PSoC4/Advertising_LED.h"
 536              		.file 10 "Generated_Source\\PSoC4/Disconnect_LED.h"
 537              		.file 11 "Generated_Source\\PSoC4/cyPm.h"
 538              		.file 12 "Generated_Source\\PSoC4/IDAC.h"
 539              		.file 13 "Generated_Source\\PSoC4/BLE_StackGattDb.h"
 540              		.file 14 "Generated_Source\\PSoC4/Pin_1.h"
ARM GAS  C:\Users\Raulmo\AppData\Local\Temp\cc9xfTDG.s 			page 15


 541              		.file 15 "Generated_Source\\PSoC4/Connect_LED.h"
 542              		.file 16 "Generated_Source\\PSoC4/CyLib.h"